SF:/home/noah/src/apr-cookbook/src/aprender_integration.rs
FN:84,_RNvMNtCsbI4GvrKBu8M_12apr_cookbook20aprender_integrationNtB2_12AprModelInfo12payload_size
FN:90,_RNvMNtCsbI4GvrKBu8M_12apr_cookbook20aprender_integrationNtB2_12AprModelInfo5inner
FN:201,_RNCNvNtNtCsbI4GvrKBu8M_12apr_cookbook20aprender_integration5testss_24test_simple_model_random0B7_
FN:193,_RNCNvNtNtCsbI4GvrKBu8M_12apr_cookbook20aprender_integration5testss_26test_simple_model_creation0B7_
FN:24,_RINvMNtCsbI4GvrKBu8M_12apr_cookbook20aprender_integrationNtB3_12AprModelInfo9from_pathRNtNtCseKw8H5dE9QK_3std4path7PathBufEB5_
FN:115,_RINvNtCsbI4GvrKBu8M_12apr_cookbook20aprender_integration10load_modelNtB2_11SimpleModelRNtNtCseKw8H5dE9QK_3std4path7PathBufEB4_
FN:100,_RINvNtCsbI4GvrKBu8M_12apr_cookbook20aprender_integration10save_modelNtB2_11SimpleModelRNtNtCseKw8H5dE9QK_3std4path7PathBufEB4_
FN:127,_RINvNtCsbI4GvrKBu8M_12apr_cookbook20aprender_integration21load_model_from_bytesNtB2_11SimpleModelEB4_
FN:25,_RNCINvMNtCsbI4GvrKBu8M_12apr_cookbook20aprender_integrationNtB5_12AprModelInfo9from_pathRNtNtCseKw8H5dE9QK_3std4path7PathBufE0B7_
FN:119,_RNCINvNtCsbI4GvrKBu8M_12apr_cookbook20aprender_integration10load_modelNtB4_11SimpleModelRNtNtCseKw8H5dE9QK_3std4path7PathBufE0B6_
FN:107,_RNCINvNtCsbI4GvrKBu8M_12apr_cookbook20aprender_integration10save_modelNtB4_11SimpleModelRNtNtCseKw8H5dE9QK_3std4path7PathBufE0B6_
FN:131,_RNCINvNtCsbI4GvrKBu8M_12apr_cookbook20aprender_integration21load_model_from_bytesNtB4_11SimpleModelE0B6_
FN:36,_RNCNvMNtCsbI4GvrKBu8M_12apr_cookbook20aprender_integrationNtB4_12AprModelInfo10from_bytes0B6_
FN:280,_RNvNtNtCsbI4GvrKBu8M_12apr_cookbook20aprender_integration5testss_18test_inspect_bytes
FN:263,_RNvNtNtCsbI4GvrKBu8M_12apr_cookbook20aprender_integration5testss_20test_load_from_bytes
FN:244,_RNvNtNtCsbI4GvrKBu8M_12apr_cookbook20aprender_integration5testss_23test_inspect_model_info
FN:197,_RNvNtNtCsbI4GvrKBu8M_12apr_cookbook20aprender_integration5testss_24test_simple_model_random
FN:296,_RNvNtNtCsbI4GvrKBu8M_12apr_cookbook20aprender_integration5testss_25test_model_type_preserved
FN:188,_RNvNtNtCsbI4GvrKBu8M_12apr_cookbook20aprender_integration5testss_26test_simple_model_creation
FN:205,_RNvNtNtCsbI4GvrKBu8M_12apr_cookbook20aprender_integration5testss_28test_save_and_load_roundtrip
FN:222,_RNvNtNtCsbI4GvrKBu8M_12apr_cookbook20aprender_integration5testss_35test_save_and_load_with_compression
FN:34,_RNvMNtCsbI4GvrKBu8M_12apr_cookbook20aprender_integrationNtB2_12AprModelInfo10from_bytes
FN:42,_RNvMNtCsbI4GvrKBu8M_12apr_cookbook20aprender_integrationNtB2_12AprModelInfo10model_type
FN:78,_RNvMNtCsbI4GvrKBu8M_12apr_cookbook20aprender_integrationNtB2_12AprModelInfo11description
FN:60,_RNvMNtCsbI4GvrKBu8M_12apr_cookbook20aprender_integrationNtB2_12AprModelInfo12is_encrypted
FN:54,_RNvMNtCsbI4GvrKBu8M_12apr_cookbook20aprender_integrationNtB2_12AprModelInfo13is_compressed
FN:72,_RNvMNtCsbI4GvrKBu8M_12apr_cookbook20aprender_integrationNtB2_12AprModelInfo4name
FN:48,_RNvMNtCsbI4GvrKBu8M_12apr_cookbook20aprender_integrationNtB2_12AprModelInfo7version
FN:66,_RNvMNtCsbI4GvrKBu8M_12apr_cookbook20aprender_integrationNtB2_12AprModelInfo9is_signed
FN:175,_RNvMs_NtCsbI4GvrKBu8M_12apr_cookbook20aprender_integrationNtB4_11SimpleModel10num_params
FN:148,_RNvMs_NtCsbI4GvrKBu8M_12apr_cookbook20aprender_integrationNtB4_11SimpleModel3new
FN:158,_RNvMs_NtCsbI4GvrKBu8M_12apr_cookbook20aprender_integrationNtB4_11SimpleModel6random
FN:24,_RINvMNtCs7QJKW1ROcAn_12apr_cookbook20aprender_integrationNtB3_12AprModelInfo9from_pathRNtNtCseKw8H5dE9QK_3std4path7PathBufECskNYZcDoxzTO_17proptest_aprender
FN:115,_RINvNtCs7QJKW1ROcAn_12apr_cookbook20aprender_integration10load_modelNtB2_11SimpleModelRNtNtCseKw8H5dE9QK_3std4path7PathBufECskNYZcDoxzTO_17proptest_aprender
FN:100,_RINvNtCs7QJKW1ROcAn_12apr_cookbook20aprender_integration10save_modelNtB2_11SimpleModelRNtNtCseKw8H5dE9QK_3std4path7PathBufECskNYZcDoxzTO_17proptest_aprender
FN:127,_RINvNtCs7QJKW1ROcAn_12apr_cookbook20aprender_integration21load_model_from_bytesNtB2_11SimpleModelECskNYZcDoxzTO_17proptest_aprender
FN:25,_RNCINvMNtCs7QJKW1ROcAn_12apr_cookbook20aprender_integrationNtB5_12AprModelInfo9from_pathRNtNtCseKw8H5dE9QK_3std4path7PathBufE0CskNYZcDoxzTO_17proptest_aprender
FN:119,_RNCINvNtCs7QJKW1ROcAn_12apr_cookbook20aprender_integration10load_modelNtB4_11SimpleModelRNtNtCseKw8H5dE9QK_3std4path7PathBufE0CskNYZcDoxzTO_17proptest_aprender
FN:107,_RNCINvNtCs7QJKW1ROcAn_12apr_cookbook20aprender_integration10save_modelNtB4_11SimpleModelRNtNtCseKw8H5dE9QK_3std4path7PathBufE0CskNYZcDoxzTO_17proptest_aprender
FN:131,_RNCINvNtCs7QJKW1ROcAn_12apr_cookbook20aprender_integration21load_model_from_bytesNtB4_11SimpleModelE0CskNYZcDoxzTO_17proptest_aprender
FN:34,_RNvMNtCs7QJKW1ROcAn_12apr_cookbook20aprender_integrationNtB2_12AprModelInfo10from_bytes
FN:42,_RNvMNtCs7QJKW1ROcAn_12apr_cookbook20aprender_integrationNtB2_12AprModelInfo10model_type
FN:78,_RNvMNtCs7QJKW1ROcAn_12apr_cookbook20aprender_integrationNtB2_12AprModelInfo11description
FN:60,_RNvMNtCs7QJKW1ROcAn_12apr_cookbook20aprender_integrationNtB2_12AprModelInfo12is_encrypted
FN:84,_RNvMNtCs7QJKW1ROcAn_12apr_cookbook20aprender_integrationNtB2_12AprModelInfo12payload_size
FN:54,_RNvMNtCs7QJKW1ROcAn_12apr_cookbook20aprender_integrationNtB2_12AprModelInfo13is_compressed
FN:72,_RNvMNtCs7QJKW1ROcAn_12apr_cookbook20aprender_integrationNtB2_12AprModelInfo4name
FN:90,_RNvMNtCs7QJKW1ROcAn_12apr_cookbook20aprender_integrationNtB2_12AprModelInfo5inner
FN:48,_RNvMNtCs7QJKW1ROcAn_12apr_cookbook20aprender_integrationNtB2_12AprModelInfo7version
FN:66,_RNvMNtCs7QJKW1ROcAn_12apr_cookbook20aprender_integrationNtB2_12AprModelInfo9is_signed
FN:175,_RNvMs_NtCs7QJKW1ROcAn_12apr_cookbook20aprender_integrationNtB4_11SimpleModel10num_params
FN:148,_RNvMs_NtCs7QJKW1ROcAn_12apr_cookbook20aprender_integrationNtB4_11SimpleModel3new
FN:158,_RNvMs_NtCs7QJKW1ROcAn_12apr_cookbook20aprender_integrationNtB4_11SimpleModel6random
FN:36,_RNCNvMNtCs7QJKW1ROcAn_12apr_cookbook20aprender_integrationNtB4_12AprModelInfo10from_bytes0B6_
FN:36,_RNCNvMNtCskSZOdA4WLnX_12apr_cookbook20aprender_integrationNtB4_12AprModelInfo10from_bytes0B6_
FNDA:0,_RNvMNtCsbI4GvrKBu8M_12apr_cookbook20aprender_integrationNtB2_12AprModelInfo12payload_size
FNDA:0,_RNvMNtCsbI4GvrKBu8M_12apr_cookbook20aprender_integrationNtB2_12AprModelInfo5inner
FNDA:1,_RNCNvNtNtCsbI4GvrKBu8M_12apr_cookbook20aprender_integration5testss_24test_simple_model_random0B7_
FNDA:50,_RNCNvNtNtCsbI4GvrKBu8M_12apr_cookbook20aprender_integration5testss_26test_simple_model_creation0B7_
FNDA:3,_RINvMNtCsbI4GvrKBu8M_12apr_cookbook20aprender_integrationNtB3_12AprModelInfo9from_pathRNtNtCseKw8H5dE9QK_3std4path7PathBufEB5_
FNDA:2,_RINvNtCsbI4GvrKBu8M_12apr_cookbook20aprender_integration10load_modelNtB2_11SimpleModelRNtNtCseKw8H5dE9QK_3std4path7PathBufEB4_
FNDA:6,_RINvNtCsbI4GvrKBu8M_12apr_cookbook20aprender_integration10save_modelNtB2_11SimpleModelRNtNtCseKw8H5dE9QK_3std4path7PathBufEB4_
FNDA:1,_RINvNtCsbI4GvrKBu8M_12apr_cookbook20aprender_integration21load_model_from_bytesNtB2_11SimpleModelEB4_
FNDA:0,_RNCINvMNtCsbI4GvrKBu8M_12apr_cookbook20aprender_integrationNtB5_12AprModelInfo9from_pathRNtNtCseKw8H5dE9QK_3std4path7PathBufE0B7_
FNDA:0,_RNCINvNtCsbI4GvrKBu8M_12apr_cookbook20aprender_integration10load_modelNtB4_11SimpleModelRNtNtCseKw8H5dE9QK_3std4path7PathBufE0B6_
FNDA:0,_RNCINvNtCsbI4GvrKBu8M_12apr_cookbook20aprender_integration10save_modelNtB4_11SimpleModelRNtNtCseKw8H5dE9QK_3std4path7PathBufE0B6_
FNDA:0,_RNCINvNtCsbI4GvrKBu8M_12apr_cookbook20aprender_integration21load_model_from_bytesNtB4_11SimpleModelE0B6_
FNDA:0,_RNCNvMNtCsbI4GvrKBu8M_12apr_cookbook20aprender_integrationNtB4_12AprModelInfo10from_bytes0B6_
FNDA:1,_RNvNtNtCsbI4GvrKBu8M_12apr_cookbook20aprender_integration5testss_18test_inspect_bytes
FNDA:1,_RNvNtNtCsbI4GvrKBu8M_12apr_cookbook20aprender_integration5testss_20test_load_from_bytes
FNDA:1,_RNvNtNtCsbI4GvrKBu8M_12apr_cookbook20aprender_integration5testss_23test_inspect_model_info
FNDA:1,_RNvNtNtCsbI4GvrKBu8M_12apr_cookbook20aprender_integration5testss_24test_simple_model_random
FNDA:1,_RNvNtNtCsbI4GvrKBu8M_12apr_cookbook20aprender_integration5testss_25test_model_type_preserved
FNDA:1,_RNvNtNtCsbI4GvrKBu8M_12apr_cookbook20aprender_integration5testss_26test_simple_model_creation
FNDA:1,_RNvNtNtCsbI4GvrKBu8M_12apr_cookbook20aprender_integration5testss_28test_save_and_load_roundtrip
FNDA:1,_RNvNtNtCsbI4GvrKBu8M_12apr_cookbook20aprender_integration5testss_35test_save_and_load_with_compression
FNDA:1,_RNvMNtCsbI4GvrKBu8M_12apr_cookbook20aprender_integrationNtB2_12AprModelInfo10from_bytes
FNDA:2,_RNvMNtCsbI4GvrKBu8M_12apr_cookbook20aprender_integrationNtB2_12AprModelInfo10model_type
FNDA:1,_RNvMNtCsbI4GvrKBu8M_12apr_cookbook20aprender_integrationNtB2_12AprModelInfo11description
FNDA:1,_RNvMNtCsbI4GvrKBu8M_12apr_cookbook20aprender_integrationNtB2_12AprModelInfo12is_encrypted
FNDA:1,_RNvMNtCsbI4GvrKBu8M_12apr_cookbook20aprender_integrationNtB2_12AprModelInfo13is_compressed
FNDA:2,_RNvMNtCsbI4GvrKBu8M_12apr_cookbook20aprender_integrationNtB2_12AprModelInfo4name
FNDA:1,_RNvMNtCsbI4GvrKBu8M_12apr_cookbook20aprender_integrationNtB2_12AprModelInfo7version
FNDA:1,_RNvMNtCsbI4GvrKBu8M_12apr_cookbook20aprender_integrationNtB2_12AprModelInfo9is_signed
FNDA:2,_RNvMs_NtCsbI4GvrKBu8M_12apr_cookbook20aprender_integrationNtB4_11SimpleModel10num_params
FNDA:3,_RNvMs_NtCsbI4GvrKBu8M_12apr_cookbook20aprender_integrationNtB4_11SimpleModel3new
FNDA:5,_RNvMs_NtCsbI4GvrKBu8M_12apr_cookbook20aprender_integrationNtB4_11SimpleModel6random
FNDA:401,_RINvMNtCs7QJKW1ROcAn_12apr_cookbook20aprender_integrationNtB3_12AprModelInfo9from_pathRNtNtCseKw8H5dE9QK_3std4path7PathBufECskNYZcDoxzTO_17proptest_aprender
FNDA:202,_RINvNtCs7QJKW1ROcAn_12apr_cookbook20aprender_integration10load_modelNtB2_11SimpleModelRNtNtCseKw8H5dE9QK_3std4path7PathBufECskNYZcDoxzTO_17proptest_aprender
FNDA:603,_RINvNtCs7QJKW1ROcAn_12apr_cookbook20aprender_integration10save_modelNtB2_11SimpleModelRNtNtCseKw8H5dE9QK_3std4path7PathBufECskNYZcDoxzTO_17proptest_aprender
FNDA:100,_RINvNtCs7QJKW1ROcAn_12apr_cookbook20aprender_integration21load_model_from_bytesNtB2_11SimpleModelECskNYZcDoxzTO_17proptest_aprender
FNDA:0,_RNCINvMNtCs7QJKW1ROcAn_12apr_cookbook20aprender_integrationNtB5_12AprModelInfo9from_pathRNtNtCseKw8H5dE9QK_3std4path7PathBufE0CskNYZcDoxzTO_17proptest_aprender
FNDA:0,_RNCINvNtCs7QJKW1ROcAn_12apr_cookbook20aprender_integration10load_modelNtB4_11SimpleModelRNtNtCseKw8H5dE9QK_3std4path7PathBufE0CskNYZcDoxzTO_17proptest_aprender
FNDA:0,_RNCINvNtCs7QJKW1ROcAn_12apr_cookbook20aprender_integration10save_modelNtB4_11SimpleModelRNtNtCseKw8H5dE9QK_3std4path7PathBufE0CskNYZcDoxzTO_17proptest_aprender
FNDA:0,_RNCINvNtCs7QJKW1ROcAn_12apr_cookbook20aprender_integration21load_model_from_bytesNtB4_11SimpleModelE0CskNYZcDoxzTO_17proptest_aprender
FNDA:100,_RNvMNtCs7QJKW1ROcAn_12apr_cookbook20aprender_integrationNtB2_12AprModelInfo10from_bytes
FNDA:300,_RNvMNtCs7QJKW1ROcAn_12apr_cookbook20aprender_integrationNtB2_12AprModelInfo10model_type
FNDA:0,_RNvMNtCs7QJKW1ROcAn_12apr_cookbook20aprender_integrationNtB2_12AprModelInfo11description
FNDA:1,_RNvMNtCs7QJKW1ROcAn_12apr_cookbook20aprender_integrationNtB2_12AprModelInfo12is_encrypted
FNDA:0,_RNvMNtCs7QJKW1ROcAn_12apr_cookbook20aprender_integrationNtB2_12AprModelInfo12payload_size
FNDA:0,_RNvMNtCs7QJKW1ROcAn_12apr_cookbook20aprender_integrationNtB2_12AprModelInfo13is_compressed
FNDA:300,_RNvMNtCs7QJKW1ROcAn_12apr_cookbook20aprender_integrationNtB2_12AprModelInfo4name
FNDA:0,_RNvMNtCs7QJKW1ROcAn_12apr_cookbook20aprender_integrationNtB2_12AprModelInfo5inner
FNDA:300,_RNvMNtCs7QJKW1ROcAn_12apr_cookbook20aprender_integrationNtB2_12AprModelInfo7version
FNDA:1,_RNvMNtCs7QJKW1ROcAn_12apr_cookbook20aprender_integrationNtB2_12AprModelInfo9is_signed
FNDA:100,_RNvMs_NtCs7QJKW1ROcAn_12apr_cookbook20aprender_integrationNtB4_11SimpleModel10num_params
FNDA:602,_RNvMs_NtCs7QJKW1ROcAn_12apr_cookbook20aprender_integrationNtB4_11SimpleModel3new
FNDA:401,_RNvMs_NtCs7QJKW1ROcAn_12apr_cookbook20aprender_integrationNtB4_11SimpleModel6random
FNDA:0,_RNCNvMNtCs7QJKW1ROcAn_12apr_cookbook20aprender_integrationNtB4_12AprModelInfo10from_bytes0B6_
FNDA:0,_RNCNvMNtCskSZOdA4WLnX_12apr_cookbook20aprender_integrationNtB4_12AprModelInfo10from_bytes0B6_
FNF:32
FNH:25
DA:24,404
DA:25,404
DA:26,404
DA:27,404
DA:34,101
DA:35,101
DA:36,101
DA:37,101
DA:38,101
DA:42,302
DA:43,302
DA:44,302
DA:48,301
DA:49,301
DA:50,301
DA:54,1
DA:55,1
DA:56,1
DA:60,2
DA:61,2
DA:62,2
DA:66,2
DA:67,2
DA:68,2
DA:72,302
DA:73,302
DA:74,302
DA:78,1
DA:79,1
DA:80,1
DA:84,0
DA:85,0
DA:86,0
DA:90,0
DA:91,0
DA:92,0
DA:100,609
DA:101,609
DA:102,609
DA:103,609
DA:104,609
DA:105,609
DA:106,609
DA:107,609
DA:108,609
DA:115,204
DA:116,204
DA:117,204
DA:118,204
DA:119,204
DA:120,204
DA:127,101
DA:128,101
DA:129,101
DA:130,101
DA:131,101
DA:132,101
DA:148,605
DA:149,605
DA:150,605
DA:151,605
DA:152,605
DA:153,605
DA:154,605
DA:158,406
DA:160,406
DA:161,406
DA:162,1370384
DA:163,1369978
DA:164,1369978
DA:165,1369978
DA:166,406
DA:167,406
DA:168,406
DA:169,406
DA:170,406
DA:171,406
DA:175,102
DA:176,102
DA:177,102
DA:188,1
DA:189,1
DA:190,1
DA:191,1
DA:192,1
DA:193,50
DA:194,1
DA:197,1
DA:198,1
DA:199,1
DA:201,1
DA:202,1
DA:205,1
DA:206,1
DA:207,1
DA:209,1
DA:212,1
DA:213,1
DA:216,1
DA:218,1
DA:219,1
DA:222,1
DA:223,1
DA:224,1
DA:226,1
DA:229,1
DA:230,1
DA:231,1
DA:232,1
DA:235,1
DA:236,1
DA:239,1
DA:240,1
DA:241,1
DA:244,1
DA:245,1
DA:246,1
DA:248,1
DA:249,1
DA:250,1
DA:251,1
DA:252,1
DA:254,1
DA:255,1
DA:256,1
DA:257,1
DA:258,1
DA:259,1
DA:260,1
DA:263,1
DA:264,1
DA:265,1
DA:267,1
DA:268,1
DA:269,1
DA:272,1
DA:275,1
DA:276,1
DA:277,1
DA:280,1
DA:281,1
DA:282,1
DA:284,1
DA:285,1
DA:286,1
DA:288,1
DA:289,1
DA:291,1
DA:292,1
DA:293,1
DA:296,1
DA:297,1
DA:298,1
DA:300,1
DA:301,1
DA:304,1
DA:307,1
DA:308,1
DA:309,1
BRF:0
BRH:0
LF:166
LH:155
end_of_record
SF:/home/noah/src/apr-cookbook/src/bundle.rs
FN:144,_RNvMNtCsbI4GvrKBu8M_12apr_cookbook6bundleNtB2_12BundledModel8metadata
FN:214,_RINvMs_NtCsbI4GvrKBu8M_12apr_cookbook6bundleNtB5_11ModelBundle16with_descriptionReEB7_
FN:207,_RINvMs_NtCsbI4GvrKBu8M_12apr_cookbook6bundleNtB5_11ModelBundle9with_nameRNtNtCs6juDKDKeRkf_5alloc6string6StringEB7_
FN:207,_RINvMs_NtCsbI4GvrKBu8M_12apr_cookbook6bundleNtB5_11ModelBundle9with_nameReEB7_
FN:371,_RNvNtNtCsbI4GvrKBu8M_12apr_cookbook6bundle5testss_18test_flags_parsing
FN:341,_RNvNtNtCsbI4GvrKBu8M_12apr_cookbook6bundle5testss_23test_bundled_model_size
FN:328,_RNvNtNtCsbI4GvrKBu8M_12apr_cookbook6bundle5testss_25test_model_bundle_builder
FN:350,_RNvNtNtCsbI4GvrKBu8M_12apr_cookbook6bundle5testss_31test_bundled_model_name_default
FN:281,_RNvNtNtCsbI4GvrKBu8M_12apr_cookbook6bundle5testss_35test_bundled_model_from_valid_bytes
FN:357,_RNvNtNtCsbI4GvrKBu8M_12apr_cookbook6bundle5testss_37test_bundled_model_as_bytes_roundtrip
FN:306,_RNvNtNtCsbI4GvrKBu8M_12apr_cookbook6bundle5testss_37test_bundled_model_rejects_short_data
FN:295,_RNvNtNtCsbI4GvrKBu8M_12apr_cookbook6bundle5testss_40test_bundled_model_from_compressed_bytes
FN:316,_RNvNtNtCsbI4GvrKBu8M_12apr_cookbook6bundle5testss_40test_bundled_model_rejects_invalid_magic
FN:81,_RNvMNtCsbI4GvrKBu8M_12apr_cookbook6bundleNtB2_12BundledModel10from_bytes
FN:168,_RNvMNtCsbI4GvrKBu8M_12apr_cookbook6bundleNtB2_12BundledModel12is_encrypted
FN:109,_RNvMNtCsbI4GvrKBu8M_12apr_cookbook6bundleNtB2_12BundledModel12parse_header
FN:162,_RNvMNtCsbI4GvrKBu8M_12apr_cookbook6bundleNtB2_12BundledModel13is_compressed
FN:138,_RNvMNtCsbI4GvrKBu8M_12apr_cookbook6bundleNtB2_12BundledModel4name
FN:156,_RNvMNtCsbI4GvrKBu8M_12apr_cookbook6bundleNtB2_12BundledModel4size
FN:180,_RNvMNtCsbI4GvrKBu8M_12apr_cookbook6bundleNtB2_12BundledModel7version
FN:150,_RNvMNtCsbI4GvrKBu8M_12apr_cookbook6bundleNtB2_12BundledModel8as_bytes
FN:174,_RNvMNtCsbI4GvrKBu8M_12apr_cookbook6bundleNtB2_12BundledModel9is_signed
FN:228,_RNvMs_NtCsbI4GvrKBu8M_12apr_cookbook6bundleNtB4_11ModelBundle12with_payload
FN:221,_RNvMs_NtCsbI4GvrKBu8M_12apr_cookbook6bundleNtB4_11ModelBundle16with_compression
FN:201,_RNvMs_NtCsbI4GvrKBu8M_12apr_cookbook6bundleNtB4_11ModelBundle3new
FN:235,_RNvMs_NtCsbI4GvrKBu8M_12apr_cookbook6bundleNtB4_11ModelBundle5build
FN:81,_RNvMNtCs7QJKW1ROcAn_12apr_cookbook6bundleNtB2_12BundledModel10from_bytes
FN:168,_RNvMNtCs7QJKW1ROcAn_12apr_cookbook6bundleNtB2_12BundledModel12is_encrypted
FN:109,_RNvMNtCs7QJKW1ROcAn_12apr_cookbook6bundleNtB2_12BundledModel12parse_header
FN:162,_RNvMNtCs7QJKW1ROcAn_12apr_cookbook6bundleNtB2_12BundledModel13is_compressed
FN:138,_RNvMNtCs7QJKW1ROcAn_12apr_cookbook6bundleNtB2_12BundledModel4name
FN:156,_RNvMNtCs7QJKW1ROcAn_12apr_cookbook6bundleNtB2_12BundledModel4size
FN:180,_RNvMNtCs7QJKW1ROcAn_12apr_cookbook6bundleNtB2_12BundledModel7version
FN:150,_RNvMNtCs7QJKW1ROcAn_12apr_cookbook6bundleNtB2_12BundledModel8as_bytes
FN:144,_RNvMNtCs7QJKW1ROcAn_12apr_cookbook6bundleNtB2_12BundledModel8metadata
FN:174,_RNvMNtCs7QJKW1ROcAn_12apr_cookbook6bundleNtB2_12BundledModel9is_signed
FN:228,_RNvMs_NtCs7QJKW1ROcAn_12apr_cookbook6bundleNtB4_11ModelBundle12with_payload
FN:221,_RNvMs_NtCs7QJKW1ROcAn_12apr_cookbook6bundleNtB4_11ModelBundle16with_compression
FN:201,_RNvMs_NtCs7QJKW1ROcAn_12apr_cookbook6bundleNtB4_11ModelBundle3new
FN:235,_RNvMs_NtCs7QJKW1ROcAn_12apr_cookbook6bundleNtB4_11ModelBundle5build
FN:207,_RINvMs_NtCs7QJKW1ROcAn_12apr_cookbook6bundleNtB5_11ModelBundle9with_nameRNtNtCs6juDKDKeRkf_5alloc6string6StringEB7_
FN:81,_RNvMNtCskSZOdA4WLnX_12apr_cookbook6bundleNtB2_12BundledModel10from_bytes
FN:168,_RNvMNtCskSZOdA4WLnX_12apr_cookbook6bundleNtB2_12BundledModel12is_encrypted
FN:109,_RNvMNtCskSZOdA4WLnX_12apr_cookbook6bundleNtB2_12BundledModel12parse_header
FN:162,_RNvMNtCskSZOdA4WLnX_12apr_cookbook6bundleNtB2_12BundledModel13is_compressed
FN:138,_RNvMNtCskSZOdA4WLnX_12apr_cookbook6bundleNtB2_12BundledModel4name
FN:156,_RNvMNtCskSZOdA4WLnX_12apr_cookbook6bundleNtB2_12BundledModel4size
FN:180,_RNvMNtCskSZOdA4WLnX_12apr_cookbook6bundleNtB2_12BundledModel7version
FN:150,_RNvMNtCskSZOdA4WLnX_12apr_cookbook6bundleNtB2_12BundledModel8as_bytes
FN:144,_RNvMNtCskSZOdA4WLnX_12apr_cookbook6bundleNtB2_12BundledModel8metadata
FN:174,_RNvMNtCskSZOdA4WLnX_12apr_cookbook6bundleNtB2_12BundledModel9is_signed
FN:228,_RNvMs_NtCskSZOdA4WLnX_12apr_cookbook6bundleNtB4_11ModelBundle12with_payload
FN:221,_RNvMs_NtCskSZOdA4WLnX_12apr_cookbook6bundleNtB4_11ModelBundle16with_compression
FN:201,_RNvMs_NtCskSZOdA4WLnX_12apr_cookbook6bundleNtB4_11ModelBundle3new
FN:235,_RNvMs_NtCskSZOdA4WLnX_12apr_cookbook6bundleNtB4_11ModelBundle5build
FN:207,_RINvMs_NtCskSZOdA4WLnX_12apr_cookbook6bundleNtB5_11ModelBundle9with_nameRNtNtCs6juDKDKeRkf_5alloc6string6StringEB7_
FN:207,_RINvMs_NtCs7QJKW1ROcAn_12apr_cookbook6bundleNtB5_11ModelBundle9with_nameReECsiL6m4owGLdr_9apr_bench
FN:207,_RINvMs_NtCskSZOdA4WLnX_12apr_cookbook6bundleNtB5_11ModelBundle9with_nameReECs9d60sQz4lqx_9apr_bench
FN:214,_RINvMs_NtCs7QJKW1ROcAn_12apr_cookbook6bundleNtB5_11ModelBundle16with_descriptionReECscdTkBT4OyXn_8apr_info
FN:207,_RINvMs_NtCs7QJKW1ROcAn_12apr_cookbook6bundleNtB5_11ModelBundle9with_nameReECscdTkBT4OyXn_8apr_info
FN:214,_RINvMs_NtCskSZOdA4WLnX_12apr_cookbook6bundleNtB5_11ModelBundle16with_descriptionReECs8OoVYrotFIq_8apr_info
FN:207,_RINvMs_NtCskSZOdA4WLnX_12apr_cookbook6bundleNtB5_11ModelBundle9with_nameReECs8OoVYrotFIq_8apr_info
FN:207,_RINvMs_NtCs7QJKW1ROcAn_12apr_cookbook6bundleNtB5_11ModelBundle9with_nameReECs8RfopDnbFy0_25bundle_apr_lambda_package
FN:207,_RINvMs_NtCs7QJKW1ROcAn_12apr_cookbook6bundleNtB5_11ModelBundle9with_nameReECs2Oe5PNaaKdy_17bundle_apr_signed
FN:214,_RINvMs_NtCs7QJKW1ROcAn_12apr_cookbook6bundleNtB5_11ModelBundle16with_descriptionReECsj0kpzzu5Vw1_24bundle_apr_static_binary
FN:207,_RINvMs_NtCs7QJKW1ROcAn_12apr_cookbook6bundleNtB5_11ModelBundle9with_nameReECsj0kpzzu5Vw1_24bundle_apr_static_binary
FN:214,_RINvMs_NtCskSZOdA4WLnX_12apr_cookbook6bundleNtB5_11ModelBundle16with_descriptionReECsiIarK2Y79i2_24bundle_apr_static_binary
FN:207,_RINvMs_NtCskSZOdA4WLnX_12apr_cookbook6bundleNtB5_11ModelBundle9with_nameReECsiIarK2Y79i2_24bundle_apr_static_binary
FN:207,_RINvMs_NtCs7QJKW1ROcAn_12apr_cookbook6bundleNtB5_11ModelBundle9with_nameNtNtCs6juDKDKeRkf_5alloc6string6StringECs1Gt190xFEsQ_22bundle_quantized_model
FN:207,_RINvMs_NtCskSZOdA4WLnX_12apr_cookbook6bundleNtB5_11ModelBundle9with_nameNtNtCs6juDKDKeRkf_5alloc6string6StringECs4Y5dg7wiGic_22bundle_quantized_model
FN:214,_RINvMs_NtCs7QJKW1ROcAn_12apr_cookbook6bundleNtB5_11ModelBundle16with_descriptionReECsaY8zbCgXVgg_19bundle_static_model
FN:207,_RINvMs_NtCs7QJKW1ROcAn_12apr_cookbook6bundleNtB5_11ModelBundle9with_nameReECsaY8zbCgXVgg_19bundle_static_model
FN:214,_RINvMs_NtCskSZOdA4WLnX_12apr_cookbook6bundleNtB5_11ModelBundle16with_descriptionReECsj5cjU3NmL6M_19bundle_static_model
FN:207,_RINvMs_NtCskSZOdA4WLnX_12apr_cookbook6bundleNtB5_11ModelBundle9with_nameReECsj5cjU3NmL6M_19bundle_static_model
FN:207,_RINvMs_NtCs7QJKW1ROcAn_12apr_cookbook6bundleNtB5_11ModelBundle9with_nameReECs1Uv7gtJRDqN_15cli_apr_convert
FN:207,_RINvMs_NtCs7QJKW1ROcAn_12apr_cookbook6bundleNtB5_11ModelBundle9with_nameReECsdgdEVy2aETh_12cli_apr_info
FN:207,_RINvMs_NtCskSZOdA4WLnX_12apr_cookbook6bundleNtB5_11ModelBundle9with_nameReECs44Qd8sBO4zP_12cli_apr_info
FN:207,_RINvMs_NtCs7QJKW1ROcAn_12apr_cookbook6bundleNtB5_11ModelBundle9with_nameReECs5EL3cCHZbAj_21registry_register_apr
FNDA:0,_RNvMNtCsbI4GvrKBu8M_12apr_cookbook6bundleNtB2_12BundledModel8metadata
FNDA:1,_RINvMs_NtCsbI4GvrKBu8M_12apr_cookbook6bundleNtB5_11ModelBundle16with_descriptionReEB7_
FNDA:1,_RINvMs_NtCsbI4GvrKBu8M_12apr_cookbook6bundleNtB5_11ModelBundle9with_nameRNtNtCs6juDKDKeRkf_5alloc6string6StringEB7_
FNDA:2,_RINvMs_NtCsbI4GvrKBu8M_12apr_cookbook6bundleNtB5_11ModelBundle9with_nameReEB7_
FNDA:1,_RNvNtNtCsbI4GvrKBu8M_12apr_cookbook6bundle5testss_18test_flags_parsing
FNDA:1,_RNvNtNtCsbI4GvrKBu8M_12apr_cookbook6bundle5testss_23test_bundled_model_size
FNDA:1,_RNvNtNtCsbI4GvrKBu8M_12apr_cookbook6bundle5testss_25test_model_bundle_builder
FNDA:1,_RNvNtNtCsbI4GvrKBu8M_12apr_cookbook6bundle5testss_31test_bundled_model_name_default
FNDA:1,_RNvNtNtCsbI4GvrKBu8M_12apr_cookbook6bundle5testss_35test_bundled_model_from_valid_bytes
FNDA:1,_RNvNtNtCsbI4GvrKBu8M_12apr_cookbook6bundle5testss_37test_bundled_model_as_bytes_roundtrip
FNDA:1,_RNvNtNtCsbI4GvrKBu8M_12apr_cookbook6bundle5testss_37test_bundled_model_rejects_short_data
FNDA:1,_RNvNtNtCsbI4GvrKBu8M_12apr_cookbook6bundle5testss_40test_bundled_model_from_compressed_bytes
FNDA:1,_RNvNtNtCsbI4GvrKBu8M_12apr_cookbook6bundle5testss_40test_bundled_model_rejects_invalid_magic
FNDA:15,_RNvMNtCsbI4GvrKBu8M_12apr_cookbook6bundleNtB2_12BundledModel10from_bytes
FNDA:9,_RNvMNtCsbI4GvrKBu8M_12apr_cookbook6bundleNtB2_12BundledModel12is_encrypted
FNDA:13,_RNvMNtCsbI4GvrKBu8M_12apr_cookbook6bundleNtB2_12BundledModel12parse_header
FNDA:10,_RNvMNtCsbI4GvrKBu8M_12apr_cookbook6bundleNtB2_12BundledModel13is_compressed
FNDA:1,_RNvMNtCsbI4GvrKBu8M_12apr_cookbook6bundleNtB2_12BundledModel4name
FNDA:1,_RNvMNtCsbI4GvrKBu8M_12apr_cookbook6bundleNtB2_12BundledModel4size
FNDA:1,_RNvMNtCsbI4GvrKBu8M_12apr_cookbook6bundleNtB2_12BundledModel7version
FNDA:1,_RNvMNtCsbI4GvrKBu8M_12apr_cookbook6bundleNtB2_12BundledModel8as_bytes
FNDA:9,_RNvMNtCsbI4GvrKBu8M_12apr_cookbook6bundleNtB2_12BundledModel9is_signed
FNDA:6,_RNvMs_NtCsbI4GvrKBu8M_12apr_cookbook6bundleNtB4_11ModelBundle12with_payload
FNDA:10,_RNvMs_NtCsbI4GvrKBu8M_12apr_cookbook6bundleNtB4_11ModelBundle16with_compression
FNDA:15,_RNvMs_NtCsbI4GvrKBu8M_12apr_cookbook6bundleNtB4_11ModelBundle3new
FNDA:15,_RNvMs_NtCsbI4GvrKBu8M_12apr_cookbook6bundleNtB4_11ModelBundle5build
FNDA:404,_RNvMNtCs7QJKW1ROcAn_12apr_cookbook6bundleNtB2_12BundledModel10from_bytes
FNDA:0,_RNvMNtCs7QJKW1ROcAn_12apr_cookbook6bundleNtB2_12BundledModel12is_encrypted
FNDA:404,_RNvMNtCs7QJKW1ROcAn_12apr_cookbook6bundleNtB2_12BundledModel12parse_header
FNDA:102,_RNvMNtCs7QJKW1ROcAn_12apr_cookbook6bundleNtB2_12BundledModel13is_compressed
FNDA:0,_RNvMNtCs7QJKW1ROcAn_12apr_cookbook6bundleNtB2_12BundledModel4name
FNDA:102,_RNvMNtCs7QJKW1ROcAn_12apr_cookbook6bundleNtB2_12BundledModel4size
FNDA:100,_RNvMNtCs7QJKW1ROcAn_12apr_cookbook6bundleNtB2_12BundledModel7version
FNDA:100,_RNvMNtCs7QJKW1ROcAn_12apr_cookbook6bundleNtB2_12BundledModel8as_bytes
FNDA:0,_RNvMNtCs7QJKW1ROcAn_12apr_cookbook6bundleNtB2_12BundledModel8metadata
FNDA:0,_RNvMNtCs7QJKW1ROcAn_12apr_cookbook6bundleNtB2_12BundledModel9is_signed
FNDA:604,_RNvMs_NtCs7QJKW1ROcAn_12apr_cookbook6bundleNtB4_11ModelBundle12with_payload
FNDA:102,_RNvMs_NtCs7QJKW1ROcAn_12apr_cookbook6bundleNtB4_11ModelBundle16with_compression
FNDA:604,_RNvMs_NtCs7QJKW1ROcAn_12apr_cookbook6bundleNtB4_11ModelBundle3new
FNDA:604,_RNvMs_NtCs7QJKW1ROcAn_12apr_cookbook6bundleNtB4_11ModelBundle5build
FNDA:100,_RINvMs_NtCs7QJKW1ROcAn_12apr_cookbook6bundleNtB5_11ModelBundle9with_nameRNtNtCs6juDKDKeRkf_5alloc6string6StringEB7_
FNDA:0,_RNvMNtCskSZOdA4WLnX_12apr_cookbook6bundleNtB2_12BundledModel10from_bytes
FNDA:0,_RNvMNtCskSZOdA4WLnX_12apr_cookbook6bundleNtB2_12BundledModel12is_encrypted
FNDA:0,_RNvMNtCskSZOdA4WLnX_12apr_cookbook6bundleNtB2_12BundledModel12parse_header
FNDA:0,_RNvMNtCskSZOdA4WLnX_12apr_cookbook6bundleNtB2_12BundledModel13is_compressed
FNDA:0,_RNvMNtCskSZOdA4WLnX_12apr_cookbook6bundleNtB2_12BundledModel4name
FNDA:0,_RNvMNtCskSZOdA4WLnX_12apr_cookbook6bundleNtB2_12BundledModel4size
FNDA:0,_RNvMNtCskSZOdA4WLnX_12apr_cookbook6bundleNtB2_12BundledModel7version
FNDA:0,_RNvMNtCskSZOdA4WLnX_12apr_cookbook6bundleNtB2_12BundledModel8as_bytes
FNDA:0,_RNvMNtCskSZOdA4WLnX_12apr_cookbook6bundleNtB2_12BundledModel8metadata
FNDA:0,_RNvMNtCskSZOdA4WLnX_12apr_cookbook6bundleNtB2_12BundledModel9is_signed
FNDA:0,_RNvMs_NtCskSZOdA4WLnX_12apr_cookbook6bundleNtB4_11ModelBundle12with_payload
FNDA:0,_RNvMs_NtCskSZOdA4WLnX_12apr_cookbook6bundleNtB4_11ModelBundle16with_compression
FNDA:0,_RNvMs_NtCskSZOdA4WLnX_12apr_cookbook6bundleNtB4_11ModelBundle3new
FNDA:0,_RNvMs_NtCskSZOdA4WLnX_12apr_cookbook6bundleNtB4_11ModelBundle5build
FNDA:0,_RINvMs_NtCskSZOdA4WLnX_12apr_cookbook6bundleNtB5_11ModelBundle9with_nameRNtNtCs6juDKDKeRkf_5alloc6string6StringEB7_
FNDA:0,_RINvMs_NtCs7QJKW1ROcAn_12apr_cookbook6bundleNtB5_11ModelBundle9with_nameReECsiL6m4owGLdr_9apr_bench
FNDA:0,_RINvMs_NtCskSZOdA4WLnX_12apr_cookbook6bundleNtB5_11ModelBundle9with_nameReECs9d60sQz4lqx_9apr_bench
FNDA:0,_RINvMs_NtCs7QJKW1ROcAn_12apr_cookbook6bundleNtB5_11ModelBundle16with_descriptionReECscdTkBT4OyXn_8apr_info
FNDA:0,_RINvMs_NtCs7QJKW1ROcAn_12apr_cookbook6bundleNtB5_11ModelBundle9with_nameReECscdTkBT4OyXn_8apr_info
FNDA:0,_RINvMs_NtCskSZOdA4WLnX_12apr_cookbook6bundleNtB5_11ModelBundle16with_descriptionReECs8OoVYrotFIq_8apr_info
FNDA:0,_RINvMs_NtCskSZOdA4WLnX_12apr_cookbook6bundleNtB5_11ModelBundle9with_nameReECs8OoVYrotFIq_8apr_info
FNDA:0,_RINvMs_NtCs7QJKW1ROcAn_12apr_cookbook6bundleNtB5_11ModelBundle9with_nameReECs8RfopDnbFy0_25bundle_apr_lambda_package
FNDA:0,_RINvMs_NtCs7QJKW1ROcAn_12apr_cookbook6bundleNtB5_11ModelBundle9with_nameReECs2Oe5PNaaKdy_17bundle_apr_signed
FNDA:0,_RINvMs_NtCs7QJKW1ROcAn_12apr_cookbook6bundleNtB5_11ModelBundle16with_descriptionReECsj0kpzzu5Vw1_24bundle_apr_static_binary
FNDA:0,_RINvMs_NtCs7QJKW1ROcAn_12apr_cookbook6bundleNtB5_11ModelBundle9with_nameReECsj0kpzzu5Vw1_24bundle_apr_static_binary
FNDA:0,_RINvMs_NtCskSZOdA4WLnX_12apr_cookbook6bundleNtB5_11ModelBundle16with_descriptionReECsiIarK2Y79i2_24bundle_apr_static_binary
FNDA:0,_RINvMs_NtCskSZOdA4WLnX_12apr_cookbook6bundleNtB5_11ModelBundle9with_nameReECsiIarK2Y79i2_24bundle_apr_static_binary
FNDA:0,_RINvMs_NtCs7QJKW1ROcAn_12apr_cookbook6bundleNtB5_11ModelBundle9with_nameNtNtCs6juDKDKeRkf_5alloc6string6StringECs1Gt190xFEsQ_22bundle_quantized_model
FNDA:0,_RINvMs_NtCskSZOdA4WLnX_12apr_cookbook6bundleNtB5_11ModelBundle9with_nameNtNtCs6juDKDKeRkf_5alloc6string6StringECs4Y5dg7wiGic_22bundle_quantized_model
FNDA:0,_RINvMs_NtCs7QJKW1ROcAn_12apr_cookbook6bundleNtB5_11ModelBundle16with_descriptionReECsaY8zbCgXVgg_19bundle_static_model
FNDA:0,_RINvMs_NtCs7QJKW1ROcAn_12apr_cookbook6bundleNtB5_11ModelBundle9with_nameReECsaY8zbCgXVgg_19bundle_static_model
FNDA:0,_RINvMs_NtCskSZOdA4WLnX_12apr_cookbook6bundleNtB5_11ModelBundle16with_descriptionReECsj5cjU3NmL6M_19bundle_static_model
FNDA:0,_RINvMs_NtCskSZOdA4WLnX_12apr_cookbook6bundleNtB5_11ModelBundle9with_nameReECsj5cjU3NmL6M_19bundle_static_model
FNDA:0,_RINvMs_NtCs7QJKW1ROcAn_12apr_cookbook6bundleNtB5_11ModelBundle9with_nameReECs1Uv7gtJRDqN_15cli_apr_convert
FNDA:0,_RINvMs_NtCs7QJKW1ROcAn_12apr_cookbook6bundleNtB5_11ModelBundle9with_nameReECsdgdEVy2aETh_12cli_apr_info
FNDA:0,_RINvMs_NtCskSZOdA4WLnX_12apr_cookbook6bundleNtB5_11ModelBundle9with_nameReECs44Qd8sBO4zP_12cli_apr_info
FNDA:0,_RINvMs_NtCs7QJKW1ROcAn_12apr_cookbook6bundleNtB5_11ModelBundle9with_nameReECs5EL3cCHZbAj_21registry_register_apr
FNF:25
FNH:24
DA:81,419
DA:83,419
DA:84,1
DA:85,1
DA:86,1
DA:87,1
DA:88,1
DA:89,418
DA:92,418
DA:93,1
DA:94,1
DA:95,1
DA:96,1
DA:97,417
DA:100,417
DA:102,417
DA:103,417
DA:104,417
DA:105,417
DA:106,419
DA:109,417
DA:118,417
DA:119,417
DA:121,417
DA:122,417
DA:123,417
DA:125,417
DA:126,417
DA:127,417
DA:128,417
DA:129,417
DA:130,417
DA:131,417
DA:132,417
DA:133,417
DA:134,417
DA:138,1
DA:139,1
DA:140,1
DA:144,0
DA:145,0
DA:146,0
DA:150,101
DA:151,101
DA:152,101
DA:156,103
DA:157,103
DA:158,103
DA:162,112
DA:163,112
DA:164,112
DA:168,9
DA:169,9
DA:170,9
DA:174,9
DA:175,9
DA:176,9
DA:180,101
DA:181,101
DA:182,101
DA:201,619
DA:202,619
DA:203,619
DA:207,103
DA:208,103
DA:209,103
DA:210,103
DA:214,1
DA:215,1
DA:216,1
DA:217,1
DA:221,112
DA:222,112
DA:223,112
DA:224,112
DA:228,610
DA:229,610
DA:230,610
DA:231,610
DA:235,619
DA:236,619
DA:239,619
DA:242,619
DA:243,619
DA:246,619
DA:247,619
DA:248,64
DA:249,555
DA:250,619
DA:251,4
DA:252,615
DA:253,619
DA:254,4
DA:255,615
DA:256,619
DA:259,619
DA:262,619
DA:263,619
DA:266,619
DA:269,619
DA:271,619
DA:272,619
DA:281,1
DA:282,1
DA:283,1
DA:284,1
DA:285,1
DA:287,1
DA:288,1
DA:289,1
DA:290,1
DA:291,1
DA:292,1
DA:295,1
DA:296,1
DA:297,1
DA:298,1
DA:299,1
DA:301,1
DA:302,1
DA:303,1
DA:306,1
DA:307,1
DA:308,1
DA:309,1
DA:311,1
DA:312,1
DA:313,1
DA:316,1
DA:317,1
DA:318,1
DA:320,1
DA:321,1
DA:323,1
DA:324,1
DA:325,1
DA:328,1
DA:329,1
DA:330,1
DA:331,1
DA:332,1
DA:333,1
DA:334,1
DA:336,1
DA:337,1
DA:338,1
DA:341,1
DA:342,1
DA:343,1
DA:345,1
DA:346,1
DA:347,1
DA:350,1
DA:351,1
DA:352,1
DA:353,1
DA:354,1
DA:357,1
DA:358,1
DA:359,1
DA:360,1
DA:361,1
DA:363,1
DA:364,1
DA:367,1
DA:368,1
DA:371,1
DA:373,3
DA:374,6
DA:375,12
DA:376,8
DA:377,8
DA:378,8
DA:379,8
DA:381,8
DA:382,8
DA:383,8
DA:384,8
DA:388,1
BRF:0
BRH:0
LF:179
LH:176
end_of_record
SF:/home/noah/src/apr-cookbook/src/convert.rs
FN:252,_RNvXs2_NtCsbI4GvrKBu8M_12apr_cookbook7convertNtB5_12AprConverterNtNtCs6RpC691fUBl_4core7default7Default7default
FN:42,_RNvMNtCsbI4GvrKBu8M_12apr_cookbook7convertNtB2_16ConversionFormat14from_extension
FN:33,_RNvMNtCsbI4GvrKBu8M_12apr_cookbook7convertNtB2_16ConversionFormat9extension
FN:52,_RNvMNtCsbI4GvrKBu8M_12apr_cookbook7convertNtB2_16ConversionFormat9from_path
FN:107,_RNvMs0_NtCsbI4GvrKBu8M_12apr_cookbook7convertNtB5_8DataType12element_size
FN:149,_RNvMs1_NtCsbI4GvrKBu8M_12apr_cookbook7convertNtB5_12AprConverter10add_tensor
FN:166,_RNvMs1_NtCsbI4GvrKBu8M_12apr_cookbook7convertNtB5_12AprConverter10get_tensor
FN:154,_RNvMs1_NtCsbI4GvrKBu8M_12apr_cookbook7convertNtB5_12AprConverter12set_metadata
FN:172,_RNvMs1_NtCsbI4GvrKBu8M_12apr_cookbook7convertNtB5_12AprConverter12tensor_count
FN:160,_RNvMs1_NtCsbI4GvrKBu8M_12apr_cookbook7convertNtB5_12AprConverter12tensor_names
FN:178,_RNvMs1_NtCsbI4GvrKBu8M_12apr_cookbook7convertNtB5_12AprConverter16total_parameters
FN:207,_RNvMs1_NtCsbI4GvrKBu8M_12apr_cookbook7convertNtB5_12AprConverter17serialize_tensors
FN:237,_RNvMs1_NtCsbI4GvrKBu8M_12apr_cookbook7convertNtB5_12AprConverter23is_conversion_supported
FN:141,_RNvMs1_NtCsbI4GvrKBu8M_12apr_cookbook7convertNtB5_12AprConverter3new
FN:190,_RNvMs1_NtCsbI4GvrKBu8M_12apr_cookbook7convertNtB5_12AprConverter6to_apr
FN:60,_RNvXs_NtCsbI4GvrKBu8M_12apr_cookbook7convertNtB4_16ConversionFormatNtNtCs6RpC691fUBl_4core3fmt7Display3fmt
FN:54,_RNCNvMNtCsbI4GvrKBu8M_12apr_cookbook7convertNtB4_16ConversionFormat9from_path0B6_
FN:181,_RNCNvMs1_NtCsbI4GvrKBu8M_12apr_cookbook7convertNtB7_12AprConverter16total_parameters0B9_
FN:398,_RNvNtNtCsbI4GvrKBu8M_12apr_cookbook7convert5testss_25test_apr_converter_to_apr
FN:459,_RNvNtNtCsbI4GvrKBu8M_12apr_cookbook7convert5testss_25test_tensor_data_creation
FN:328,_RNvNtNtCsbI4GvrKBu8M_12apr_cookbook7convert5testss_27test_data_type_element_size
FN:419,_RNvNtNtCsbI4GvrKBu8M_12apr_cookbook7convert5testss_28test_is_conversion_supported
FN:337,_RNvNtNtCsbI4GvrKBu8M_12apr_cookbook7convert5testss_29test_apr_converter_add_tensor
FN:321,_RNvNtNtCsbI4GvrKBu8M_12apr_cookbook7convert5testss_30test_conversion_format_display
FN:353,_RNvNtNtCsbI4GvrKBu8M_12apr_cookbook7convert5testss_31test_apr_converter_tensor_names
FN:264,_RNvNtNtCsbI4GvrKBu8M_12apr_cookbook7convert5testss_32test_conversion_format_extension
FN:300,_RNvNtNtCsbI4GvrKBu8M_12apr_cookbook7convert5testss_32test_conversion_format_from_path
FN:450,_RNvNtNtCsbI4GvrKBu8M_12apr_cookbook7convert5testss_32test_conversion_metadata_default
FN:377,_RNvNtNtCsbI4GvrKBu8M_12apr_cookbook7convert5testss_35test_apr_converter_total_parameters
FN:271,_RNvNtNtCsbI4GvrKBu8M_12apr_cookbook7convert5testss_37test_conversion_format_from_extension
FN:288,_RNvNtNtCsbI4GvrKBu8M_12apr_cookbook7convert5testss_54test_conversion_format_from_extension_case_insensitive
FN:54,_RNCNvMNtCs7QJKW1ROcAn_12apr_cookbook7convertNtB4_16ConversionFormat9from_path0B6_
FN:181,_RNCNvMs1_NtCs7QJKW1ROcAn_12apr_cookbook7convertNtB7_12AprConverter16total_parameters0B9_
FN:42,_RNvMNtCs7QJKW1ROcAn_12apr_cookbook7convertNtB2_16ConversionFormat14from_extension
FN:33,_RNvMNtCs7QJKW1ROcAn_12apr_cookbook7convertNtB2_16ConversionFormat9extension
FN:52,_RNvMNtCs7QJKW1ROcAn_12apr_cookbook7convertNtB2_16ConversionFormat9from_path
FN:107,_RNvMs0_NtCs7QJKW1ROcAn_12apr_cookbook7convertNtB5_8DataType12element_size
FN:149,_RNvMs1_NtCs7QJKW1ROcAn_12apr_cookbook7convertNtB5_12AprConverter10add_tensor
FN:166,_RNvMs1_NtCs7QJKW1ROcAn_12apr_cookbook7convertNtB5_12AprConverter10get_tensor
FN:154,_RNvMs1_NtCs7QJKW1ROcAn_12apr_cookbook7convertNtB5_12AprConverter12set_metadata
FN:172,_RNvMs1_NtCs7QJKW1ROcAn_12apr_cookbook7convertNtB5_12AprConverter12tensor_count
FN:160,_RNvMs1_NtCs7QJKW1ROcAn_12apr_cookbook7convertNtB5_12AprConverter12tensor_names
FN:178,_RNvMs1_NtCs7QJKW1ROcAn_12apr_cookbook7convertNtB5_12AprConverter16total_parameters
FN:207,_RNvMs1_NtCs7QJKW1ROcAn_12apr_cookbook7convertNtB5_12AprConverter17serialize_tensors
FN:237,_RNvMs1_NtCs7QJKW1ROcAn_12apr_cookbook7convertNtB5_12AprConverter23is_conversion_supported
FN:141,_RNvMs1_NtCs7QJKW1ROcAn_12apr_cookbook7convertNtB5_12AprConverter3new
FN:190,_RNvMs1_NtCs7QJKW1ROcAn_12apr_cookbook7convertNtB5_12AprConverter6to_apr
FN:252,_RNvXs2_NtCs7QJKW1ROcAn_12apr_cookbook7convertNtB5_12AprConverterNtNtCs6RpC691fUBl_4core7default7Default7default
FN:60,_RNvXs_NtCs7QJKW1ROcAn_12apr_cookbook7convertNtB4_16ConversionFormatNtNtCs6RpC691fUBl_4core3fmt7Display3fmt
FN:42,_RNvMNtCskSZOdA4WLnX_12apr_cookbook7convertNtB2_16ConversionFormat14from_extension
FN:33,_RNvMNtCskSZOdA4WLnX_12apr_cookbook7convertNtB2_16ConversionFormat9extension
FN:52,_RNvMNtCskSZOdA4WLnX_12apr_cookbook7convertNtB2_16ConversionFormat9from_path
FN:107,_RNvMs0_NtCskSZOdA4WLnX_12apr_cookbook7convertNtB5_8DataType12element_size
FN:149,_RNvMs1_NtCskSZOdA4WLnX_12apr_cookbook7convertNtB5_12AprConverter10add_tensor
FN:166,_RNvMs1_NtCskSZOdA4WLnX_12apr_cookbook7convertNtB5_12AprConverter10get_tensor
FN:154,_RNvMs1_NtCskSZOdA4WLnX_12apr_cookbook7convertNtB5_12AprConverter12set_metadata
FN:172,_RNvMs1_NtCskSZOdA4WLnX_12apr_cookbook7convertNtB5_12AprConverter12tensor_count
FN:160,_RNvMs1_NtCskSZOdA4WLnX_12apr_cookbook7convertNtB5_12AprConverter12tensor_names
FN:178,_RNvMs1_NtCskSZOdA4WLnX_12apr_cookbook7convertNtB5_12AprConverter16total_parameters
FN:207,_RNvMs1_NtCskSZOdA4WLnX_12apr_cookbook7convertNtB5_12AprConverter17serialize_tensors
FN:237,_RNvMs1_NtCskSZOdA4WLnX_12apr_cookbook7convertNtB5_12AprConverter23is_conversion_supported
FN:141,_RNvMs1_NtCskSZOdA4WLnX_12apr_cookbook7convertNtB5_12AprConverter3new
FN:190,_RNvMs1_NtCskSZOdA4WLnX_12apr_cookbook7convertNtB5_12AprConverter6to_apr
FN:252,_RNvXs2_NtCskSZOdA4WLnX_12apr_cookbook7convertNtB5_12AprConverterNtNtCs6RpC691fUBl_4core7default7Default7default
FN:60,_RNvXs_NtCskSZOdA4WLnX_12apr_cookbook7convertNtB4_16ConversionFormatNtNtCs6RpC691fUBl_4core3fmt7Display3fmt
FN:54,_RNCNvMNtCskSZOdA4WLnX_12apr_cookbook7convertNtB4_16ConversionFormat9from_path0B6_
FN:181,_RNCNvMs1_NtCskSZOdA4WLnX_12apr_cookbook7convertNtB7_12AprConverter16total_parameters0B9_
FNDA:0,_RNvXs2_NtCsbI4GvrKBu8M_12apr_cookbook7convertNtB5_12AprConverterNtNtCs6RpC691fUBl_4core7default7Default7default
FNDA:9,_RNvMNtCsbI4GvrKBu8M_12apr_cookbook7convertNtB2_16ConversionFormat14from_extension
FNDA:3,_RNvMNtCsbI4GvrKBu8M_12apr_cookbook7convertNtB2_16ConversionFormat9extension
FNDA:3,_RNvMNtCsbI4GvrKBu8M_12apr_cookbook7convertNtB2_16ConversionFormat9from_path
FNDA:5,_RNvMs0_NtCsbI4GvrKBu8M_12apr_cookbook7convertNtB5_8DataType12element_size
FNDA:6,_RNvMs1_NtCsbI4GvrKBu8M_12apr_cookbook7convertNtB5_12AprConverter10add_tensor
FNDA:1,_RNvMs1_NtCsbI4GvrKBu8M_12apr_cookbook7convertNtB5_12AprConverter10get_tensor
FNDA:1,_RNvMs1_NtCsbI4GvrKBu8M_12apr_cookbook7convertNtB5_12AprConverter12set_metadata
FNDA:1,_RNvMs1_NtCsbI4GvrKBu8M_12apr_cookbook7convertNtB5_12AprConverter12tensor_count
FNDA:1,_RNvMs1_NtCsbI4GvrKBu8M_12apr_cookbook7convertNtB5_12AprConverter12tensor_names
FNDA:1,_RNvMs1_NtCsbI4GvrKBu8M_12apr_cookbook7convertNtB5_12AprConverter16total_parameters
FNDA:1,_RNvMs1_NtCsbI4GvrKBu8M_12apr_cookbook7convertNtB5_12AprConverter17serialize_tensors
FNDA:6,_RNvMs1_NtCsbI4GvrKBu8M_12apr_cookbook7convertNtB5_12AprConverter23is_conversion_supported
FNDA:4,_RNvMs1_NtCsbI4GvrKBu8M_12apr_cookbook7convertNtB5_12AprConverter3new
FNDA:1,_RNvMs1_NtCsbI4GvrKBu8M_12apr_cookbook7convertNtB5_12AprConverter6to_apr
FNDA:3,_RNvXs_NtCsbI4GvrKBu8M_12apr_cookbook7convertNtB4_16ConversionFormatNtNtCs6RpC691fUBl_4core3fmt7Display3fmt
FNDA:3,_RNCNvMNtCsbI4GvrKBu8M_12apr_cookbook7convertNtB4_16ConversionFormat9from_path0B6_
FNDA:2,_RNCNvMs1_NtCsbI4GvrKBu8M_12apr_cookbook7convertNtB7_12AprConverter16total_parameters0B9_
FNDA:1,_RNvNtNtCsbI4GvrKBu8M_12apr_cookbook7convert5testss_25test_apr_converter_to_apr
FNDA:1,_RNvNtNtCsbI4GvrKBu8M_12apr_cookbook7convert5testss_25test_tensor_data_creation
FNDA:1,_RNvNtNtCsbI4GvrKBu8M_12apr_cookbook7convert5testss_27test_data_type_element_size
FNDA:1,_RNvNtNtCsbI4GvrKBu8M_12apr_cookbook7convert5testss_28test_is_conversion_supported
FNDA:1,_RNvNtNtCsbI4GvrKBu8M_12apr_cookbook7convert5testss_29test_apr_converter_add_tensor
FNDA:1,_RNvNtNtCsbI4GvrKBu8M_12apr_cookbook7convert5testss_30test_conversion_format_display
FNDA:1,_RNvNtNtCsbI4GvrKBu8M_12apr_cookbook7convert5testss_31test_apr_converter_tensor_names
FNDA:1,_RNvNtNtCsbI4GvrKBu8M_12apr_cookbook7convert5testss_32test_conversion_format_extension
FNDA:1,_RNvNtNtCsbI4GvrKBu8M_12apr_cookbook7convert5testss_32test_conversion_format_from_path
FNDA:1,_RNvNtNtCsbI4GvrKBu8M_12apr_cookbook7convert5testss_32test_conversion_metadata_default
FNDA:1,_RNvNtNtCsbI4GvrKBu8M_12apr_cookbook7convert5testss_35test_apr_converter_total_parameters
FNDA:1,_RNvNtNtCsbI4GvrKBu8M_12apr_cookbook7convert5testss_37test_conversion_format_from_extension
FNDA:1,_RNvNtNtCsbI4GvrKBu8M_12apr_cookbook7convert5testss_54test_conversion_format_from_extension_case_insensitive
FNDA:0,_RNCNvMNtCs7QJKW1ROcAn_12apr_cookbook7convertNtB4_16ConversionFormat9from_path0B6_
FNDA:253,_RNCNvMs1_NtCs7QJKW1ROcAn_12apr_cookbook7convertNtB7_12AprConverter16total_parameters0B9_
FNDA:6,_RNvMNtCs7QJKW1ROcAn_12apr_cookbook7convertNtB2_16ConversionFormat14from_extension
FNDA:103,_RNvMNtCs7QJKW1ROcAn_12apr_cookbook7convertNtB2_16ConversionFormat9extension
FNDA:0,_RNvMNtCs7QJKW1ROcAn_12apr_cookbook7convertNtB2_16ConversionFormat9from_path
FNDA:961,_RNvMs0_NtCs7QJKW1ROcAn_12apr_cookbook7convertNtB5_8DataType12element_size
FNDA:861,_RNvMs1_NtCs7QJKW1ROcAn_12apr_cookbook7convertNtB5_12AprConverter10add_tensor
FNDA:0,_RNvMs1_NtCs7QJKW1ROcAn_12apr_cookbook7convertNtB5_12AprConverter10get_tensor
FNDA:0,_RNvMs1_NtCs7QJKW1ROcAn_12apr_cookbook7convertNtB5_12AprConverter12set_metadata
FNDA:247,_RNvMs1_NtCs7QJKW1ROcAn_12apr_cookbook7convertNtB5_12AprConverter12tensor_count
FNDA:100,_RNvMs1_NtCs7QJKW1ROcAn_12apr_cookbook7convertNtB5_12AprConverter12tensor_names
FNDA:100,_RNvMs1_NtCs7QJKW1ROcAn_12apr_cookbook7convertNtB5_12AprConverter16total_parameters
FNDA:100,_RNvMs1_NtCs7QJKW1ROcAn_12apr_cookbook7convertNtB5_12AprConverter17serialize_tensors
FNDA:4,_RNvMs1_NtCs7QJKW1ROcAn_12apr_cookbook7convertNtB5_12AprConverter23is_conversion_supported
FNDA:400,_RNvMs1_NtCs7QJKW1ROcAn_12apr_cookbook7convertNtB5_12AprConverter3new
FNDA:100,_RNvMs1_NtCs7QJKW1ROcAn_12apr_cookbook7convertNtB5_12AprConverter6to_apr
FNDA:0,_RNvXs2_NtCs7QJKW1ROcAn_12apr_cookbook7convertNtB5_12AprConverterNtNtCs6RpC691fUBl_4core7default7Default7default
FNDA:100,_RNvXs_NtCs7QJKW1ROcAn_12apr_cookbook7convertNtB4_16ConversionFormatNtNtCs6RpC691fUBl_4core3fmt7Display3fmt
FNDA:0,_RNvMNtCskSZOdA4WLnX_12apr_cookbook7convertNtB2_16ConversionFormat14from_extension
FNDA:0,_RNvMNtCskSZOdA4WLnX_12apr_cookbook7convertNtB2_16ConversionFormat9extension
FNDA:0,_RNvMNtCskSZOdA4WLnX_12apr_cookbook7convertNtB2_16ConversionFormat9from_path
FNDA:0,_RNvMs0_NtCskSZOdA4WLnX_12apr_cookbook7convertNtB5_8DataType12element_size
FNDA:0,_RNvMs1_NtCskSZOdA4WLnX_12apr_cookbook7convertNtB5_12AprConverter10add_tensor
FNDA:0,_RNvMs1_NtCskSZOdA4WLnX_12apr_cookbook7convertNtB5_12AprConverter10get_tensor
FNDA:0,_RNvMs1_NtCskSZOdA4WLnX_12apr_cookbook7convertNtB5_12AprConverter12set_metadata
FNDA:0,_RNvMs1_NtCskSZOdA4WLnX_12apr_cookbook7convertNtB5_12AprConverter12tensor_count
FNDA:0,_RNvMs1_NtCskSZOdA4WLnX_12apr_cookbook7convertNtB5_12AprConverter12tensor_names
FNDA:0,_RNvMs1_NtCskSZOdA4WLnX_12apr_cookbook7convertNtB5_12AprConverter16total_parameters
FNDA:0,_RNvMs1_NtCskSZOdA4WLnX_12apr_cookbook7convertNtB5_12AprConverter17serialize_tensors
FNDA:0,_RNvMs1_NtCskSZOdA4WLnX_12apr_cookbook7convertNtB5_12AprConverter23is_conversion_supported
FNDA:0,_RNvMs1_NtCskSZOdA4WLnX_12apr_cookbook7convertNtB5_12AprConverter3new
FNDA:0,_RNvMs1_NtCskSZOdA4WLnX_12apr_cookbook7convertNtB5_12AprConverter6to_apr
FNDA:0,_RNvXs2_NtCskSZOdA4WLnX_12apr_cookbook7convertNtB5_12AprConverterNtNtCs6RpC691fUBl_4core7default7Default7default
FNDA:0,_RNvXs_NtCskSZOdA4WLnX_12apr_cookbook7convertNtB4_16ConversionFormatNtNtCs6RpC691fUBl_4core3fmt7Display3fmt
FNDA:0,_RNCNvMNtCskSZOdA4WLnX_12apr_cookbook7convertNtB4_16ConversionFormat9from_path0B6_
FNDA:0,_RNCNvMs1_NtCskSZOdA4WLnX_12apr_cookbook7convertNtB7_12AprConverter16total_parameters0B9_
FNF:31
FNH:30
DA:33,106
DA:34,106
DA:35,34
DA:36,39
DA:37,33
DA:39,106
DA:42,15
DA:43,15
DA:44,15
DA:45,10
DA:46,5
DA:47,1
DA:49,15
DA:52,3
DA:53,3
DA:54,3
DA:55,3
DA:56,3
DA:60,103
DA:61,103
DA:62,32
DA:63,34
DA:64,37
DA:66,103
DA:107,966
DA:108,966
DA:109,194
DA:110,375
DA:111,397
DA:113,966
DA:141,404
DA:142,404
DA:143,404
DA:144,404
DA:145,404
DA:146,404
DA:149,867
DA:150,867
DA:151,867
DA:154,1
DA:155,1
DA:156,1
DA:160,101
DA:161,101
DA:162,101
DA:166,1
DA:167,1
DA:168,1
DA:172,248
DA:173,248
DA:174,248
DA:178,101
DA:179,101
DA:180,101
DA:181,255
DA:182,101
DA:183,101
DA:190,101
DA:195,101
DA:197,101
DA:199,101
DA:200,1
DA:201,100
DA:203,101
DA:204,101
DA:207,101
DA:208,101
DA:211,101
DA:212,101
DA:215,202
DA:217,101
DA:218,101
DA:219,101
DA:222,101
DA:223,303
DA:224,202
DA:225,202
DA:228,101
DA:229,101
DA:232,101
DA:233,101
DA:237,10
DA:238,4
DA:239,10
DA:248,10
DA:252,0
DA:253,0
DA:254,0
DA:264,1
DA:265,1
DA:266,1
DA:267,1
DA:268,1
DA:271,1
DA:272,1
DA:273,1
DA:276,1
DA:277,1
DA:280,1
DA:281,1
DA:284,1
DA:285,1
DA:288,1
DA:289,1
DA:290,1
DA:293,1
DA:294,1
DA:297,1
DA:300,1
DA:301,1
DA:302,1
DA:303,1
DA:307,1
DA:308,1
DA:309,1
DA:313,1
DA:314,1
DA:315,1
DA:318,1
DA:321,1
DA:322,1
DA:323,1
DA:324,1
DA:325,1
DA:328,1
DA:329,1
DA:330,1
DA:331,1
DA:332,1
DA:333,1
DA:334,1
DA:337,1
DA:338,1
DA:340,1
DA:341,1
DA:342,1
DA:343,1
DA:344,1
DA:345,1
DA:347,1
DA:348,1
DA:349,1
DA:350,1
DA:353,1
DA:354,1
DA:356,1
DA:357,1
DA:358,1
DA:359,1
DA:360,1
DA:361,1
DA:363,1
DA:364,1
DA:365,1
DA:366,1
DA:367,1
DA:368,1
DA:370,1
DA:371,1
DA:372,1
DA:373,1
DA:374,1
DA:377,1
DA:378,1
DA:380,1
DA:381,1
DA:382,1
DA:383,1
DA:384,1
DA:385,1
DA:387,1
DA:388,1
DA:389,1
DA:390,1
DA:391,1
DA:392,1
DA:394,1
DA:395,1
DA:398,1
DA:399,1
DA:400,1
DA:401,1
DA:402,1
DA:403,1
DA:405,1
DA:406,1
DA:407,1
DA:408,1
DA:409,1
DA:410,1
DA:412,1
DA:415,1
DA:416,1
DA:419,1
DA:421,1
DA:422,1
DA:423,1
DA:425,1
DA:426,1
DA:427,1
DA:429,1
DA:430,1
DA:431,1
DA:433,1
DA:434,1
DA:435,1
DA:439,1
DA:440,1
DA:441,1
DA:442,1
DA:443,1
DA:444,1
DA:445,1
DA:446,1
DA:447,1
DA:450,1
DA:451,1
DA:452,1
DA:453,1
DA:454,1
DA:455,1
DA:456,1
DA:459,1
DA:460,1
DA:461,1
DA:462,1
DA:463,1
DA:464,1
DA:465,1
DA:467,1
DA:468,1
DA:469,1
DA:470,1
DA:471,1
BRF:0
BRH:0
LF:236
LH:233
end_of_record
SF:/home/noah/src/apr-cookbook/src/error.rs
FN:136,_RNvNtNtCsbI4GvrKBu8M_12apr_cookbook5error5testss_24test_io_error_conversion
FN:97,_RNvNtNtCsbI4GvrKBu8M_12apr_cookbook5error5testss_33test_error_display_invalid_format
FN:89,_RNvNtNtCsbI4GvrKBu8M_12apr_cookbook5error5testss_34test_error_display_model_not_found
FN:106,_RNvNtNtCsbI4GvrKBu8M_12apr_cookbook5error5testss_36test_error_display_conversion_failed
FN:115,_RNvNtNtCsbI4GvrKBu8M_12apr_cookbook5error5testss_37test_error_display_dimension_mismatch
FN:127,_RNvNtNtCsbI4GvrKBu8M_12apr_cookbook5error5testss_40test_error_display_feature_not_available
FN:54,_RINvMNtCsbI4GvrKBu8M_12apr_cookbook5errorNtB3_13CookbookError14invalid_formatNtNtCs6juDKDKeRkf_5alloc6string6StringEB5_
FN:54,_RINvMNtCsbI4GvrKBu8M_12apr_cookbook5errorNtB3_13CookbookError14invalid_formatReEB5_
FN:62,_RINvMNtCsbI4GvrKBu8M_12apr_cookbook5errorNtB3_13CookbookError17conversion_failedReB1g_B1g_EB5_
FN:76,_RINvMNtCsbI4GvrKBu8M_12apr_cookbook5errorNtB3_13CookbookError21feature_not_availableReB1k_EB5_
FN:54,_RINvMNtCs7QJKW1ROcAn_12apr_cookbook5errorNtB3_13CookbookError14invalid_formatNtNtCs6juDKDKeRkf_5alloc6string6StringEB5_
FN:54,_RINvMNtCskSZOdA4WLnX_12apr_cookbook5errorNtB3_13CookbookError14invalid_formatNtNtCs6juDKDKeRkf_5alloc6string6StringEB5_
FN:54,_RINvMNtCs7QJKW1ROcAn_12apr_cookbook5errorNtB3_13CookbookError14invalid_formatReECsl817yTvCXy1_26distill_knowledge_transfer
FN:54,_RINvMNtCs7QJKW1ROcAn_12apr_cookbook5errorNtB3_13CookbookError14invalid_formatReECscZ8ft4hSk6p_23gpu_multi_gpu_inference
FNDA:1,_RNvNtNtCsbI4GvrKBu8M_12apr_cookbook5error5testss_24test_io_error_conversion
FNDA:1,_RNvNtNtCsbI4GvrKBu8M_12apr_cookbook5error5testss_33test_error_display_invalid_format
FNDA:1,_RNvNtNtCsbI4GvrKBu8M_12apr_cookbook5error5testss_34test_error_display_model_not_found
FNDA:1,_RNvNtNtCsbI4GvrKBu8M_12apr_cookbook5error5testss_36test_error_display_conversion_failed
FNDA:1,_RNvNtNtCsbI4GvrKBu8M_12apr_cookbook5error5testss_37test_error_display_dimension_mismatch
FNDA:1,_RNvNtNtCsbI4GvrKBu8M_12apr_cookbook5error5testss_40test_error_display_feature_not_available
FNDA:2,_RINvMNtCsbI4GvrKBu8M_12apr_cookbook5errorNtB3_13CookbookError14invalid_formatNtNtCs6juDKDKeRkf_5alloc6string6StringEB5_
FNDA:1,_RINvMNtCsbI4GvrKBu8M_12apr_cookbook5errorNtB3_13CookbookError14invalid_formatReEB5_
FNDA:1,_RINvMNtCsbI4GvrKBu8M_12apr_cookbook5errorNtB3_13CookbookError17conversion_failedReB1g_B1g_EB5_
FNDA:1,_RINvMNtCsbI4GvrKBu8M_12apr_cookbook5errorNtB3_13CookbookError21feature_not_availableReB1k_EB5_
FNDA:0,_RINvMNtCs7QJKW1ROcAn_12apr_cookbook5errorNtB3_13CookbookError14invalid_formatNtNtCs6juDKDKeRkf_5alloc6string6StringEB5_
FNDA:0,_RINvMNtCskSZOdA4WLnX_12apr_cookbook5errorNtB3_13CookbookError14invalid_formatNtNtCs6juDKDKeRkf_5alloc6string6StringEB5_
FNDA:0,_RINvMNtCs7QJKW1ROcAn_12apr_cookbook5errorNtB3_13CookbookError14invalid_formatReECsl817yTvCXy1_26distill_knowledge_transfer
FNDA:0,_RINvMNtCs7QJKW1ROcAn_12apr_cookbook5errorNtB3_13CookbookError14invalid_formatReECscZ8ft4hSk6p_23gpu_multi_gpu_inference
FNF:9
FNH:9
DA:54,3
DA:55,3
DA:56,3
DA:57,3
DA:58,3
DA:62,1
DA:63,1
DA:64,1
DA:65,1
DA:66,1
DA:67,1
DA:68,1
DA:69,1
DA:70,1
DA:71,1
DA:72,1
DA:76,1
DA:77,1
DA:78,1
DA:79,1
DA:80,1
DA:81,1
DA:89,1
DA:90,1
DA:91,1
DA:92,1
DA:93,1
DA:94,1
DA:97,1
DA:98,1
DA:99,1
DA:100,1
DA:103,1
DA:106,1
DA:107,1
DA:108,1
DA:109,1
DA:112,1
DA:115,1
DA:116,1
DA:117,1
DA:118,1
DA:119,1
DA:120,1
DA:121,1
DA:124,1
DA:127,1
DA:128,1
DA:129,1
DA:130,1
DA:133,1
DA:136,1
DA:137,1
DA:138,1
DA:139,1
DA:140,1
BRF:0
BRH:0
LF:56
LH:56
end_of_record
SF:/home/noah/src/apr-cookbook/src/recipe.rs
FN:119,_RNvMNtCsbI4GvrKBu8M_12apr_cookbook6recipeNtB2_13RecipeContext13with_metadata
FN:202,_RNvMNtCsbI4GvrKBu8M_12apr_cookbook6recipeNtB2_13RecipeContext6report
FN:157,_RNvMNtCsbI4GvrKBu8M_12apr_cookbook6recipeNtB2_13RecipeContext8metadata
FN:227,_RINvMNtCsbI4GvrKBu8M_12apr_cookbook6recipeNtB3_13RecipeContext18verify_idempotencyNCNvNtB3_5testss_23test_verify_idempotency0yEB5_
FN:186,_RINvMNtCsbI4GvrKBu8M_12apr_cookbook6recipeNtB3_13RecipeContext20record_string_metricReEB5_
FN:271,_RINvMs_NtCsbI4GvrKBu8M_12apr_cookbook6recipeNtB5_14RecipeMetadata12with_featureReEB7_
FN:257,_RINvMs_NtCsbI4GvrKBu8M_12apr_cookbook6recipeNtB5_14RecipeMetadata13with_categoryReEB7_
FN:264,_RINvMs_NtCsbI4GvrKBu8M_12apr_cookbook6recipeNtB5_14RecipeMetadata14with_objectiveReEB7_
FN:248,_RINvMs_NtCsbI4GvrKBu8M_12apr_cookbook6recipeNtB5_14RecipeMetadata9from_nameReEB7_
FN:296,_RNCNvNtCsbI4GvrKBu8M_12apr_cookbook6recipe18generate_test_data0B5_
FN:307,_RNCNvNtCsbI4GvrKBu8M_12apr_cookbook6recipe22generate_model_payload0B5_
FN:311,_RNCNvNtCsbI4GvrKBu8M_12apr_cookbook6recipe22generate_model_payloads_0B5_
FN:193,_RNvMNtCsbI4GvrKBu8M_12apr_cookbook6recipeNtB2_13RecipeContext10get_metric
FN:168,_RNvMNtCsbI4GvrKBu8M_12apr_cookbook6recipeNtB2_13RecipeContext13record_metric
FN:180,_RNvMNtCsbI4GvrKBu8M_12apr_cookbook6recipeNtB2_13RecipeContext15record_duration
FN:174,_RNvMNtCsbI4GvrKBu8M_12apr_cookbook6recipeNtB2_13RecipeContext19record_float_metric
FN:97,_RNvMNtCsbI4GvrKBu8M_12apr_cookbook6recipeNtB2_13RecipeContext3new
FN:145,_RNvMNtCsbI4GvrKBu8M_12apr_cookbook6recipeNtB2_13RecipeContext3rng
FN:151,_RNvMNtCsbI4GvrKBu8M_12apr_cookbook6recipeNtB2_13RecipeContext4name
FN:130,_RNvMNtCsbI4GvrKBu8M_12apr_cookbook6recipeNtB2_13RecipeContext4path
FN:163,_RNvMNtCsbI4GvrKBu8M_12apr_cookbook6recipeNtB2_13RecipeContext7elapsed
FN:136,_RNvMNtCsbI4GvrKBu8M_12apr_cookbook6recipeNtB2_13RecipeContext8temp_dir
FN:281,_RNvNtCsbI4GvrKBu8M_12apr_cookbook6recipe17hash_name_to_seed
FN:293,_RNvNtCsbI4GvrKBu8M_12apr_cookbook6recipe18generate_test_data
FN:303,_RNvNtCsbI4GvrKBu8M_12apr_cookbook6recipe22generate_model_payload
FN:340,_RNCNvNtNtCsbI4GvrKBu8M_12apr_cookbook6recipe5testss_22test_deterministic_rng0B7_
FN:341,_RNCNvNtNtCsbI4GvrKBu8M_12apr_cookbook6recipe5testss_22test_deterministic_rngs_0B7_
FN:458,_RNCNvNtNtCsbI4GvrKBu8M_12apr_cookbook6recipe5testss_23test_verify_idempotency0B7_
FN:480,_RNvNtNtCsbI4GvrKBu8M_12apr_cookbook6recipe5testss_17test_elapsed_time
FN:467,_RNvNtNtCsbI4GvrKBu8M_12apr_cookbook6recipe5testss_21test_temp_dir_cleanup
FN:334,_RNvNtNtCsbI4GvrKBu8M_12apr_cookbook6recipe5testss_22test_deterministic_rng
FN:377,_RNvNtNtCsbI4GvrKBu8M_12apr_cookbook6recipe5testss_22test_metrics_recording
FN:365,_RNvNtNtCsbI4GvrKBu8M_12apr_cookbook6recipe5testss_23test_temp_dir_isolation
FN:455,_RNvNtNtCsbI4GvrKBu8M_12apr_cookbook6recipe5testss_23test_verify_idempotency
FN:326,_RNvNtNtCsbI4GvrKBu8M_12apr_cookbook6recipe5testss_24test_recipe_context_path
FN:319,_RNvNtNtCsbI4GvrKBu8M_12apr_cookbook6recipe5testss_28test_recipe_context_creation
FN:439,_RNvNtNtCsbI4GvrKBu8M_12apr_cookbook6recipe5testss_28test_recipe_metadata_builder
FN:432,_RNvNtNtCsbI4GvrKBu8M_12apr_cookbook6recipe5testss_32test_generate_model_payload_size
FN:350,_RNvNtNtCsbI4GvrKBu8M_12apr_cookbook6recipe5testss_36test_different_recipes_different_rng
FN:397,_RNvNtNtCsbI4GvrKBu8M_12apr_cookbook6recipe5testss_36test_hash_name_to_seed_deterministic
FN:411,_RNvNtNtCsbI4GvrKBu8M_12apr_cookbook6recipe5testss_37test_generate_test_data_deterministic
FN:404,_RNvNtNtCsbI4GvrKBu8M_12apr_cookbook6recipe5testss_38test_hash_name_to_seed_different_names
FN:418,_RNvNtNtCsbI4GvrKBu8M_12apr_cookbook6recipe5testss_39test_generate_test_data_different_seeds
FN:425,_RNvNtNtCsbI4GvrKBu8M_12apr_cookbook6recipe5testss_41test_generate_model_payload_deterministic
FN:296,_RNCNvNtCs7QJKW1ROcAn_12apr_cookbook6recipe18generate_test_data0B5_
FN:307,_RNCNvNtCs7QJKW1ROcAn_12apr_cookbook6recipe22generate_model_payload0B5_
FN:311,_RNCNvNtCs7QJKW1ROcAn_12apr_cookbook6recipe22generate_model_payloads_0B5_
FN:193,_RNvMNtCs7QJKW1ROcAn_12apr_cookbook6recipeNtB2_13RecipeContext10get_metric
FN:168,_RNvMNtCs7QJKW1ROcAn_12apr_cookbook6recipeNtB2_13RecipeContext13record_metric
FN:119,_RNvMNtCs7QJKW1ROcAn_12apr_cookbook6recipeNtB2_13RecipeContext13with_metadata
FN:180,_RNvMNtCs7QJKW1ROcAn_12apr_cookbook6recipeNtB2_13RecipeContext15record_duration
FN:174,_RNvMNtCs7QJKW1ROcAn_12apr_cookbook6recipeNtB2_13RecipeContext19record_float_metric
FN:97,_RNvMNtCs7QJKW1ROcAn_12apr_cookbook6recipeNtB2_13RecipeContext3new
FN:145,_RNvMNtCs7QJKW1ROcAn_12apr_cookbook6recipeNtB2_13RecipeContext3rng
FN:151,_RNvMNtCs7QJKW1ROcAn_12apr_cookbook6recipeNtB2_13RecipeContext4name
FN:130,_RNvMNtCs7QJKW1ROcAn_12apr_cookbook6recipeNtB2_13RecipeContext4path
FN:202,_RNvMNtCs7QJKW1ROcAn_12apr_cookbook6recipeNtB2_13RecipeContext6report
FN:163,_RNvMNtCs7QJKW1ROcAn_12apr_cookbook6recipeNtB2_13RecipeContext7elapsed
FN:157,_RNvMNtCs7QJKW1ROcAn_12apr_cookbook6recipeNtB2_13RecipeContext8metadata
FN:136,_RNvMNtCs7QJKW1ROcAn_12apr_cookbook6recipeNtB2_13RecipeContext8temp_dir
FN:281,_RNvNtCs7QJKW1ROcAn_12apr_cookbook6recipe17hash_name_to_seed
FN:293,_RNvNtCs7QJKW1ROcAn_12apr_cookbook6recipe18generate_test_data
FN:303,_RNvNtCs7QJKW1ROcAn_12apr_cookbook6recipe22generate_model_payload
FN:193,_RNvMNtCskSZOdA4WLnX_12apr_cookbook6recipeNtB2_13RecipeContext10get_metric
FN:168,_RNvMNtCskSZOdA4WLnX_12apr_cookbook6recipeNtB2_13RecipeContext13record_metric
FN:119,_RNvMNtCskSZOdA4WLnX_12apr_cookbook6recipeNtB2_13RecipeContext13with_metadata
FN:180,_RNvMNtCskSZOdA4WLnX_12apr_cookbook6recipeNtB2_13RecipeContext15record_duration
FN:174,_RNvMNtCskSZOdA4WLnX_12apr_cookbook6recipeNtB2_13RecipeContext19record_float_metric
FN:97,_RNvMNtCskSZOdA4WLnX_12apr_cookbook6recipeNtB2_13RecipeContext3new
FN:145,_RNvMNtCskSZOdA4WLnX_12apr_cookbook6recipeNtB2_13RecipeContext3rng
FN:151,_RNvMNtCskSZOdA4WLnX_12apr_cookbook6recipeNtB2_13RecipeContext4name
FN:130,_RNvMNtCskSZOdA4WLnX_12apr_cookbook6recipeNtB2_13RecipeContext4path
FN:202,_RNvMNtCskSZOdA4WLnX_12apr_cookbook6recipeNtB2_13RecipeContext6report
FN:163,_RNvMNtCskSZOdA4WLnX_12apr_cookbook6recipeNtB2_13RecipeContext7elapsed
FN:157,_RNvMNtCskSZOdA4WLnX_12apr_cookbook6recipeNtB2_13RecipeContext8metadata
FN:136,_RNvMNtCskSZOdA4WLnX_12apr_cookbook6recipeNtB2_13RecipeContext8temp_dir
FN:281,_RNvNtCskSZOdA4WLnX_12apr_cookbook6recipe17hash_name_to_seed
FN:293,_RNvNtCskSZOdA4WLnX_12apr_cookbook6recipe18generate_test_data
FN:303,_RNvNtCskSZOdA4WLnX_12apr_cookbook6recipe22generate_model_payload
FN:296,_RNCNvNtCskSZOdA4WLnX_12apr_cookbook6recipe18generate_test_data0B5_
FN:307,_RNCNvNtCskSZOdA4WLnX_12apr_cookbook6recipe22generate_model_payload0B5_
FN:311,_RNCNvNtCskSZOdA4WLnX_12apr_cookbook6recipe22generate_model_payloads_0B5_
FN:186,_RINvMNtCs7QJKW1ROcAn_12apr_cookbook6recipeNtB3_13RecipeContext20record_string_metricReECs2Oe5PNaaKdy_17bundle_apr_signed
FN:186,_RINvMNtCs7QJKW1ROcAn_12apr_cookbook6recipeNtB3_13RecipeContext20record_string_metricNtNtCs6juDKDKeRkf_5alloc6string6StringECsj0kpzzu5Vw1_24bundle_apr_static_binary
FN:186,_RINvMNtCs7QJKW1ROcAn_12apr_cookbook6recipeNtB3_13RecipeContext20record_string_metricReECsj0kpzzu5Vw1_24bundle_apr_static_binary
FN:186,_RINvMNtCs7QJKW1ROcAn_12apr_cookbook6recipeNtB3_13RecipeContext20record_string_metricReECscyVojAqAlSt_23create_apr_from_scratch
FN:186,_RINvMNtCs7QJKW1ROcAn_12apr_cookbook6recipeNtB3_13RecipeContext20record_string_metricNtNtCs6juDKDKeRkf_5alloc6string6StringECseLPlWTkTzuF_31create_apr_ngram_language_model
FN:186,_RINvMNtCs7QJKW1ROcAn_12apr_cookbook6recipeNtB3_13RecipeContext20record_string_metricNtNtCs6juDKDKeRkf_5alloc6string6StringECsf1uUiXZzRtM_23registry_model_rollback
FN:186,_RINvMNtCs7QJKW1ROcAn_12apr_cookbook6recipeNtB3_13RecipeContext20record_string_metricNtNtCs6juDKDKeRkf_5alloc6string6StringECs5EL3cCHZbAj_21registry_register_apr
FNDA:0,_RNvMNtCsbI4GvrKBu8M_12apr_cookbook6recipeNtB2_13RecipeContext13with_metadata
FNDA:0,_RNvMNtCsbI4GvrKBu8M_12apr_cookbook6recipeNtB2_13RecipeContext6report
FNDA:0,_RNvMNtCsbI4GvrKBu8M_12apr_cookbook6recipeNtB2_13RecipeContext8metadata
FNDA:1,_RINvMNtCsbI4GvrKBu8M_12apr_cookbook6recipeNtB3_13RecipeContext18verify_idempotencyNCNvNtB3_5testss_23test_verify_idempotency0yEB5_
FNDA:1,_RINvMNtCsbI4GvrKBu8M_12apr_cookbook6recipeNtB3_13RecipeContext20record_string_metricReEB5_
FNDA:1,_RINvMs_NtCsbI4GvrKBu8M_12apr_cookbook6recipeNtB5_14RecipeMetadata12with_featureReEB7_
FNDA:1,_RINvMs_NtCsbI4GvrKBu8M_12apr_cookbook6recipeNtB5_14RecipeMetadata13with_categoryReEB7_
FNDA:1,_RINvMs_NtCsbI4GvrKBu8M_12apr_cookbook6recipeNtB5_14RecipeMetadata14with_objectiveReEB7_
FNDA:1,_RINvMs_NtCsbI4GvrKBu8M_12apr_cookbook6recipeNtB5_14RecipeMetadata9from_nameReEB7_
FNDA:400,_RNCNvNtCsbI4GvrKBu8M_12apr_cookbook6recipe18generate_test_data0B5_
FNDA:768,_RNCNvNtCsbI4GvrKBu8M_12apr_cookbook6recipe22generate_model_payload0B5_
FNDA:768,_RNCNvNtCsbI4GvrKBu8M_12apr_cookbook6recipe22generate_model_payloads_0B5_
FNDA:2,_RNvMNtCsbI4GvrKBu8M_12apr_cookbook6recipeNtB2_13RecipeContext10get_metric
FNDA:1,_RNvMNtCsbI4GvrKBu8M_12apr_cookbook6recipeNtB2_13RecipeContext13record_metric
FNDA:1,_RNvMNtCsbI4GvrKBu8M_12apr_cookbook6recipeNtB2_13RecipeContext15record_duration
FNDA:1,_RNvMNtCsbI4GvrKBu8M_12apr_cookbook6recipeNtB2_13RecipeContext19record_float_metric
FNDA:12,_RNvMNtCsbI4GvrKBu8M_12apr_cookbook6recipeNtB2_13RecipeContext3new
FNDA:24,_RNvMNtCsbI4GvrKBu8M_12apr_cookbook6recipeNtB2_13RecipeContext3rng
FNDA:1,_RNvMNtCsbI4GvrKBu8M_12apr_cookbook6recipeNtB2_13RecipeContext4name
FNDA:1,_RNvMNtCsbI4GvrKBu8M_12apr_cookbook6recipeNtB2_13RecipeContext4path
FNDA:1,_RNvMNtCsbI4GvrKBu8M_12apr_cookbook6recipeNtB2_13RecipeContext7elapsed
FNDA:5,_RNvMNtCsbI4GvrKBu8M_12apr_cookbook6recipeNtB2_13RecipeContext8temp_dir
FNDA:17,_RNvNtCsbI4GvrKBu8M_12apr_cookbook6recipe17hash_name_to_seed
FNDA:4,_RNvNtCsbI4GvrKBu8M_12apr_cookbook6recipe18generate_test_data
FNDA:3,_RNvNtCsbI4GvrKBu8M_12apr_cookbook6recipe22generate_model_payload
FNDA:10,_RNCNvNtNtCsbI4GvrKBu8M_12apr_cookbook6recipe5testss_22test_deterministic_rng0B7_
FNDA:10,_RNCNvNtNtCsbI4GvrKBu8M_12apr_cookbook6recipe5testss_22test_deterministic_rngs_0B7_
FNDA:2,_RNCNvNtNtCsbI4GvrKBu8M_12apr_cookbook6recipe5testss_23test_verify_idempotency0B7_
FNDA:1,_RNvNtNtCsbI4GvrKBu8M_12apr_cookbook6recipe5testss_17test_elapsed_time
FNDA:1,_RNvNtNtCsbI4GvrKBu8M_12apr_cookbook6recipe5testss_21test_temp_dir_cleanup
FNDA:1,_RNvNtNtCsbI4GvrKBu8M_12apr_cookbook6recipe5testss_22test_deterministic_rng
FNDA:1,_RNvNtNtCsbI4GvrKBu8M_12apr_cookbook6recipe5testss_22test_metrics_recording
FNDA:1,_RNvNtNtCsbI4GvrKBu8M_12apr_cookbook6recipe5testss_23test_temp_dir_isolation
FNDA:1,_RNvNtNtCsbI4GvrKBu8M_12apr_cookbook6recipe5testss_23test_verify_idempotency
FNDA:1,_RNvNtNtCsbI4GvrKBu8M_12apr_cookbook6recipe5testss_24test_recipe_context_path
FNDA:1,_RNvNtNtCsbI4GvrKBu8M_12apr_cookbook6recipe5testss_28test_recipe_context_creation
FNDA:1,_RNvNtNtCsbI4GvrKBu8M_12apr_cookbook6recipe5testss_28test_recipe_metadata_builder
FNDA:1,_RNvNtNtCsbI4GvrKBu8M_12apr_cookbook6recipe5testss_32test_generate_model_payload_size
FNDA:1,_RNvNtNtCsbI4GvrKBu8M_12apr_cookbook6recipe5testss_36test_different_recipes_different_rng
FNDA:1,_RNvNtNtCsbI4GvrKBu8M_12apr_cookbook6recipe5testss_36test_hash_name_to_seed_deterministic
FNDA:1,_RNvNtNtCsbI4GvrKBu8M_12apr_cookbook6recipe5testss_37test_generate_test_data_deterministic
FNDA:1,_RNvNtNtCsbI4GvrKBu8M_12apr_cookbook6recipe5testss_38test_hash_name_to_seed_different_names
FNDA:1,_RNvNtNtCsbI4GvrKBu8M_12apr_cookbook6recipe5testss_39test_generate_test_data_different_seeds
FNDA:1,_RNvNtNtCsbI4GvrKBu8M_12apr_cookbook6recipe5testss_41test_generate_model_payload_deterministic
FNDA:0,_RNCNvNtCs7QJKW1ROcAn_12apr_cookbook6recipe18generate_test_data0B5_
FNDA:0,_RNCNvNtCs7QJKW1ROcAn_12apr_cookbook6recipe22generate_model_payload0B5_
FNDA:0,_RNCNvNtCs7QJKW1ROcAn_12apr_cookbook6recipe22generate_model_payloads_0B5_
FNDA:0,_RNvMNtCs7QJKW1ROcAn_12apr_cookbook6recipeNtB2_13RecipeContext10get_metric
FNDA:0,_RNvMNtCs7QJKW1ROcAn_12apr_cookbook6recipeNtB2_13RecipeContext13record_metric
FNDA:0,_RNvMNtCs7QJKW1ROcAn_12apr_cookbook6recipeNtB2_13RecipeContext13with_metadata
FNDA:0,_RNvMNtCs7QJKW1ROcAn_12apr_cookbook6recipeNtB2_13RecipeContext15record_duration
FNDA:0,_RNvMNtCs7QJKW1ROcAn_12apr_cookbook6recipeNtB2_13RecipeContext19record_float_metric
FNDA:0,_RNvMNtCs7QJKW1ROcAn_12apr_cookbook6recipeNtB2_13RecipeContext3new
FNDA:0,_RNvMNtCs7QJKW1ROcAn_12apr_cookbook6recipeNtB2_13RecipeContext3rng
FNDA:0,_RNvMNtCs7QJKW1ROcAn_12apr_cookbook6recipeNtB2_13RecipeContext4name
FNDA:0,_RNvMNtCs7QJKW1ROcAn_12apr_cookbook6recipeNtB2_13RecipeContext4path
FNDA:0,_RNvMNtCs7QJKW1ROcAn_12apr_cookbook6recipeNtB2_13RecipeContext6report
FNDA:0,_RNvMNtCs7QJKW1ROcAn_12apr_cookbook6recipeNtB2_13RecipeContext7elapsed
FNDA:0,_RNvMNtCs7QJKW1ROcAn_12apr_cookbook6recipeNtB2_13RecipeContext8metadata
FNDA:0,_RNvMNtCs7QJKW1ROcAn_12apr_cookbook6recipeNtB2_13RecipeContext8temp_dir
FNDA:0,_RNvNtCs7QJKW1ROcAn_12apr_cookbook6recipe17hash_name_to_seed
FNDA:0,_RNvNtCs7QJKW1ROcAn_12apr_cookbook6recipe18generate_test_data
FNDA:0,_RNvNtCs7QJKW1ROcAn_12apr_cookbook6recipe22generate_model_payload
FNDA:0,_RNvMNtCskSZOdA4WLnX_12apr_cookbook6recipeNtB2_13RecipeContext10get_metric
FNDA:0,_RNvMNtCskSZOdA4WLnX_12apr_cookbook6recipeNtB2_13RecipeContext13record_metric
FNDA:0,_RNvMNtCskSZOdA4WLnX_12apr_cookbook6recipeNtB2_13RecipeContext13with_metadata
FNDA:0,_RNvMNtCskSZOdA4WLnX_12apr_cookbook6recipeNtB2_13RecipeContext15record_duration
FNDA:0,_RNvMNtCskSZOdA4WLnX_12apr_cookbook6recipeNtB2_13RecipeContext19record_float_metric
FNDA:0,_RNvMNtCskSZOdA4WLnX_12apr_cookbook6recipeNtB2_13RecipeContext3new
FNDA:0,_RNvMNtCskSZOdA4WLnX_12apr_cookbook6recipeNtB2_13RecipeContext3rng
FNDA:0,_RNvMNtCskSZOdA4WLnX_12apr_cookbook6recipeNtB2_13RecipeContext4name
FNDA:0,_RNvMNtCskSZOdA4WLnX_12apr_cookbook6recipeNtB2_13RecipeContext4path
FNDA:0,_RNvMNtCskSZOdA4WLnX_12apr_cookbook6recipeNtB2_13RecipeContext6report
FNDA:0,_RNvMNtCskSZOdA4WLnX_12apr_cookbook6recipeNtB2_13RecipeContext7elapsed
FNDA:0,_RNvMNtCskSZOdA4WLnX_12apr_cookbook6recipeNtB2_13RecipeContext8metadata
FNDA:0,_RNvMNtCskSZOdA4WLnX_12apr_cookbook6recipeNtB2_13RecipeContext8temp_dir
FNDA:0,_RNvNtCskSZOdA4WLnX_12apr_cookbook6recipe17hash_name_to_seed
FNDA:0,_RNvNtCskSZOdA4WLnX_12apr_cookbook6recipe18generate_test_data
FNDA:0,_RNvNtCskSZOdA4WLnX_12apr_cookbook6recipe22generate_model_payload
FNDA:0,_RNCNvNtCskSZOdA4WLnX_12apr_cookbook6recipe18generate_test_data0B5_
FNDA:0,_RNCNvNtCskSZOdA4WLnX_12apr_cookbook6recipe22generate_model_payload0B5_
FNDA:0,_RNCNvNtCskSZOdA4WLnX_12apr_cookbook6recipe22generate_model_payloads_0B5_
FNDA:0,_RINvMNtCs7QJKW1ROcAn_12apr_cookbook6recipeNtB3_13RecipeContext20record_string_metricReECs2Oe5PNaaKdy_17bundle_apr_signed
FNDA:0,_RINvMNtCs7QJKW1ROcAn_12apr_cookbook6recipeNtB3_13RecipeContext20record_string_metricNtNtCs6juDKDKeRkf_5alloc6string6StringECsj0kpzzu5Vw1_24bundle_apr_static_binary
FNDA:0,_RINvMNtCs7QJKW1ROcAn_12apr_cookbook6recipeNtB3_13RecipeContext20record_string_metricReECsj0kpzzu5Vw1_24bundle_apr_static_binary
FNDA:0,_RINvMNtCs7QJKW1ROcAn_12apr_cookbook6recipeNtB3_13RecipeContext20record_string_metricReECscyVojAqAlSt_23create_apr_from_scratch
FNDA:0,_RINvMNtCs7QJKW1ROcAn_12apr_cookbook6recipeNtB3_13RecipeContext20record_string_metricNtNtCs6juDKDKeRkf_5alloc6string6StringECseLPlWTkTzuF_31create_apr_ngram_language_model
FNDA:0,_RINvMNtCs7QJKW1ROcAn_12apr_cookbook6recipeNtB3_13RecipeContext20record_string_metricNtNtCs6juDKDKeRkf_5alloc6string6StringECsf1uUiXZzRtM_23registry_model_rollback
FNDA:0,_RINvMNtCs7QJKW1ROcAn_12apr_cookbook6recipeNtB3_13RecipeContext20record_string_metricNtNtCs6juDKDKeRkf_5alloc6string6StringECs5EL3cCHZbAj_21registry_register_apr
FNF:44
FNH:41
DA:97,12
DA:98,12
DA:99,12
DA:101,12
DA:102,12
DA:103,12
DA:104,12
DA:105,12
DA:106,12
DA:107,12
DA:108,12
DA:109,12
DA:110,12
DA:111,12
DA:112,12
DA:119,0
DA:120,0
DA:121,0
DA:122,0
DA:123,0
DA:130,1
DA:131,1
DA:132,1
DA:136,5
DA:137,5
DA:138,5
DA:145,24
DA:146,24
DA:147,24
DA:151,1
DA:152,1
DA:153,1
DA:157,0
DA:158,0
DA:159,0
DA:163,1
DA:164,1
DA:165,1
DA:168,1
DA:169,1
DA:170,1
DA:171,1
DA:174,1
DA:175,1
DA:176,1
DA:177,1
DA:180,1
DA:181,1
DA:182,1
DA:183,1
DA:186,1
DA:187,1
DA:188,1
DA:189,1
DA:193,2
DA:194,2
DA:195,2
DA:202,0
DA:203,0
DA:204,0
DA:206,0
DA:207,0
DA:208,0
DA:209,0
DA:210,0
DA:211,0
DA:212,0
DA:213,0
DA:214,0
DA:215,0
DA:218,0
DA:220,0
DA:221,0
DA:227,1
DA:228,1
DA:229,1
DA:230,1
DA:233,1
DA:234,1
DA:235,1
DA:238,1
DA:239,1
DA:241,1
DA:242,1
DA:248,1
DA:249,1
DA:250,1
DA:251,1
DA:252,1
DA:253,1
DA:257,1
DA:258,1
DA:259,1
DA:260,1
DA:264,1
DA:265,1
DA:266,1
DA:267,1
DA:271,1
DA:272,1
DA:273,1
DA:274,1
DA:281,17
DA:282,17
DA:283,17
DA:284,17
DA:285,17
DA:286,17
DA:287,17
DA:293,4
DA:295,4
DA:296,400
DA:297,4
DA:303,3
DA:305,3
DA:306,3
DA:307,768
DA:308,3
DA:311,768
DA:312,3
DA:319,1
DA:320,1
DA:321,1
DA:322,1
DA:323,1
DA:326,1
DA:327,1
DA:328,1
DA:329,1
DA:330,1
DA:331,1
DA:334,1
DA:336,1
DA:337,1
DA:340,10
DA:341,10
DA:343,1
DA:345,0
DA:347,1
DA:350,1
DA:351,1
DA:352,1
DA:355,1
DA:356,1
DA:358,1
DA:360,0
DA:362,1
DA:365,1
DA:366,1
DA:367,1
DA:369,1
DA:370,1
DA:371,1
DA:372,0
DA:374,1
DA:377,1
DA:378,1
DA:380,1
DA:381,1
DA:382,1
DA:383,1
DA:385,1
DA:386,1
DA:387,0
DA:390,1
DA:391,1
DA:392,0
DA:394,1
DA:397,1
DA:398,1
DA:399,1
DA:400,1
DA:401,1
DA:404,1
DA:405,1
DA:406,1
DA:407,1
DA:408,1
DA:411,1
DA:412,1
DA:413,1
DA:414,1
DA:415,1
DA:418,1
DA:419,1
DA:420,1
DA:421,1
DA:422,1
DA:425,1
DA:426,1
DA:427,1
DA:428,1
DA:429,1
DA:432,1
DA:433,1
DA:435,1
DA:436,1
DA:439,1
DA:440,1
DA:441,1
DA:442,1
DA:443,1
DA:445,1
DA:446,1
DA:447,1
DA:449,1
DA:451,1
DA:452,1
DA:455,1
DA:456,1
DA:458,2
DA:460,2
DA:461,2
DA:463,1
DA:464,1
DA:467,1
DA:468,1
DA:469,1
DA:470,1
DA:473,1
DA:474,1
DA:475,0
DA:477,1
DA:480,1
DA:481,1
DA:482,1
DA:483,1
DA:484,1
DA:485,1
BRF:0
BRH:0
LF:235
LH:205
end_of_record